(dp0
S'joshua_prager_in_search_for_the_man_who_broke_my_neck'
p1
S'JoshuaPrager_2013'
p2
sS'julian_treasure_5_ways_to_listen_better'
p3
S'JulianTreasure_2011G'
p4
sS'tasso_azevedo_hopeful_lessons_from_the_battle_to_save_rainforests'
p5
S'TassoAzevedo_2014G'
p6
sS'tim_jackson_s_economic_reality_check'
p7
S'TimJackson_2010G'
p8
sS'kate_orff_oysters_as_architecture'
p9
S'KateOrff_2010W'
p10
sS'stephen_hawking_asks_big_questions_about_the_universe'
p11
S'StephenHawking_2008'
p12
sS'david_pogue_says_simplicity_sells'
p13
S'DavidPogue_2006'
p14
sS'annie_lennox_why_i_am_an_hiv_aids_activist'
p15
S'AnnieLennox_2010G'
p16
sS'yang_lan'
p17
S'YangLan_2011G'
p18
sS'steven_pinker_chalks_it_up_to_the_blank_slate'
p19
S'StevenPinker_2003'
p20
sS'shih_chieh_huang_sculptures_that_d_be_at_home_at_the_bottom_of_the_ocean'
p21
S'ShihChiehHuang_2014U'
p22
sS'christopher_decharms_scans_the_brain_in_real_time'
p23
S'ChristopherdeCharms_2008'
p24
sS'eli_pariser_beware_online_filter_bubbles'
p25
S'EliPariser_2011'
p26
sS'charles_limb_building_the_musical_muscle'
p27
S'CharlesLimb_2011P'
p28
sS'jorge_soto_the_future_of_early_cancer_detection'
p29
S'JorgeSoto_2014G'
p30
sS'lawrence_lessig_the_unstoppable_walk_to_political_reform'
p31
S'LarryLessig_2014'
p32
sS'graham_hill_less_stuff_more_happiness'
p33
S'GrahamHill_2011U'
p34
sS'jonathan_drori_on_what_we_think_we_know'
p35
S'JonathanDrori_2007U'
p36
sS'joel_selanikio_the_surprising_seeds_of_a_big_data_revolution_in_healthcare'
p37
S'JoelSelanikio_2013X'
p38
sS'frank_warren_half_a_million_secrets'
p39
S'FrankWarren_2012'
p40
sS'philippe_starck_thinks_deep_on_design'
p41
S'PhilipeStarck_2007'
p42
sS'anand_varma_a_thrilling_look_at_the_first_21_days_of_a_bee_s_life'
p43
S'AnandVarma_2015'
p44
sS'sarah_kaminsky'
p45
S'SarahKaminsky_2010X'
p46
sS'scott_fraser_the_problem_with_eyewitness_testimony'
p47
S'ScottFraser_2012X'
p48
sS'denis_dutton_a_darwinian_theory_of_beauty'
p49
S'DenisDutton_2010'
p50
sS'clint_smith_the_danger_of_silence'
p51
S'ClintSmith_2014S'
p52
sS'hector_ruiz_on_connecting_the_world'
p53
S'HectorRuiz_2007G'
p54
sS'phil_hansen_embrace_the_shake'
p55
S'PhilHansen_2013'
p56
sS'jason_fried_why_work_doesn_t_happen_at_work'
p57
S'JasonFried_2010X'
p58
sS'joy_sun_should_you_donate_differently'
p59
S'JoySun_2014S'
p60
sS'mikko_hypponen_three_types_of_online_attack'
p61
S'MikkoHypponen_2011X'
p62
sS'daniel_goleman_on_compassion'
p63
S'DanielGoleman_2007'
p64
sS'luca_turin_on_the_science_of_scent'
p65
S'LucaTurin_2005'
p66
sS'john_graham_cumming_the_greatest_machine_that_never_was'
p67
S'JohnGrahamCumming_2012X'
p68
sS'adam_grosser_and_his_sustainable_fridge'
p69
S'AdamGrosser_2007'
p70
sS'james_geary_metaphorically_speaking'
p71
S'JamesGeary_2009G'
p72
sS'bruce_mccall_s_faux_nostalgia'
p73
S'BruceMcCall_2008P'
p74
sS'margaret_wertheim_crochets_the_coral_reef'
p75
S'MargaretWertheim_2009'
p76
sS'russ_altman_what_really_happens_when_you_mix_medications'
p77
S'RussAltman_2015P'
p78
sS'meklit_hadero_the_unexpected_beauty_of_everyday_sounds'
p79
S'MeklitHadero_2015F'
p80
sS'kitra_cahana_stories_of_the_homeless_and_hidden'
p81
S'KitraCahana_2014U'
p82
sS'sarah_jones_one_woman_five_characters_and_a_sex_lesson_from_the_future'
p83
S'SarahJones_2015'
p84
sS'david_sengeh_the_sore_problem_of_prosthetic_limbs'
p85
S'DavidSengeh_2014U'
p86
sS'andrew_mwenda_takes_a_new_look_at_africa'
p87
S'AndrewMwenda_2007G'
p88
sS'hans_rosling_religions_and_babies'
p89
S'HansRosling_2012S'
p90
sS'richard_baraniuk_on_open_source_learning'
p91
S'RichardBaraniuk_2006'
p92
sS'fahad_al_attiya_a_country_with_no_water'
p93
S'FahadAlAttiya_2012S'
p94
sS'geraldine_hamilton_body_parts_on_a_chip'
p95
S'GeraldineHamilton_2013X'
p96
sS'jonathan_klein_photos_that_changed_the_world'
p97
S'JonathanKlein_2010U'
p98
sS'bruno_torturra_got_a_smartphone_start_broadcasting'
p99
S'BrunoTorturra_2014G'
p100
sS'john_hardy_my_green_school_dream'
p101
S'JohnHardy_2010G'
p102
sS'jill_sobule_sings_to_al_gore'
p103
S'JillSobule_ManhattaninJanuary_2006'
p104
sS'nick_sears_demos_the_orb'
p105
S'NickSears_2007'
p106
sS'james_a_white_sr_the_little_problem_i_had_renting_a_house'
p107
S'JamesWhiteSr_2014X'
p108
sS'bill_joy_muses_on_what_s_next'
p109
S'BillJoy_2006'
p110
sS'luis_von_ahn_massive_scale_online_collaboration'
p111
S'LuisVonAhn_2011X'
p112
sS'simon_sinek_why_good_leaders_make_you_feel_safe'
p113
S'SimonSinek_2014'
p114
sS'nathalie_cabrol_how_mars_might_hold_the_secret_to_the_origin_of_life'
p115
S'NathalieCabrol_2015'
p116
sS'laurie_santos'
p117
S'LaurieSantos_2010G'
p118
sS'robin_murphy_these_robots_come_to_the_rescue_after_a_disaster'
p119
S'RobinMurphy_2015W'
p120
sS'pete_alcorn_s_vision_of_a_better_world'
p121
S'PeteAlcorn_2009'
p122
sS'yassmin_abdel_magied_what_does_my_headscarf_mean_to_you'
p123
S'YassminAbdelMagied_2014X'
p124
sS'allan_jones_a_map_of_the_brain'
p125
S'AllanJones_2011G'
p126
sS'maajid_nawaz_a_global_culture_to_fight_extremism'
p127
S'MaajidNawaz_2011G'
p128
sS'danit_peleg_forget_shopping_soon_you_ll_download_your_new_clothes'
p129
S'DanitPeleg_2015Y'
p130
sS'fabian_hemmert_the_shape_shifting_future_of_the_mobile_phone'
p131
S'FabianHemmert_2009X'
p132
sS'billie_jean_king_this_tennis_icon_paved_the_way_for_women_in_sports'
p133
S'BillieJeanKing_2015W'
p134
sS'jane_fonda_life_s_third_act'
p135
S'JaneFonda_2011X'
p136
sS'yves_rossy_fly_with_the_jetman'
p137
S'YvesRossy_2011G'
p138
sS'bernie_krause_the_voice_of_the_natural_world'
p139
S'BernieKrause_2013G'
p140
sS'hans_rosling_asia_s_rise_how_and_when'
p141
S'HansRosling_2009I'
p142
sS'salman_khan_let_s_use_video_to_reinvent_education'
p143
S'SalmanKhan_2011'
p144
sS'kevin_stone_the_bio_future_of_joint_replacement'
p145
S'KevinStone_2010U'
p146
sS'bruce_feiler_the_council_of_dads'
p147
S'BruceFeiler_2010P'
p148
sS'sherwin_nuland_on_hope'
p149
S'SherwinNuland_2003'
p150
sS'dan_gilbert_you_are_always_changing'
p151
S'DanGilbert_2014U'
p152
sS'chris_anderson_shares_his_vision_for_ted'
p153
S'ChrisAnderson_2002'
p154
sS'morgan_spurlock_the_greatest_ted_talk_ever_sold'
p155
S'MorganSpurlock_2011'
p156
sS'dean_kamen_the_emotion_behind_invention'
p157
S'DeanKamen_2009P'
p158
sS'emilie_wapnick_why_some_of_us_don_t_have_one_true_calling'
p159
S'EmilieWapnick_2015X'
p160
sS'rufus_griscom_alisa_volkman_let_s_talk_parenting_taboos'
p161
S'RufusGriscomandAlisaVolkman_2010W'
p162
sS'maria_bezaitis_the_surprising_need_for_strangeness'
p163
S'MariaBezaitis_2013S'
p164
sS'charles_hazlewood'
p165
S'CharlesHazlewood_2011G'
p166
sS'barry_schwartz_the_way_we_think_about_work_is_broken'
p167
S'BarrySchwartz_2014U'
p168
sS'asha_de_vos_why_you_should_care_about_whale_poo'
p169
S'AshadeVos_2014U'
p170
sS'the_design_genius_of_charles_and_ray_eames'
p171
S'EamesDemetrios_2007'
p172
sS'eve_ensler_on_happiness_in_body_and_soul'
p173
S'EveEnsler_2004'
p174
sS'elif_shafak_the_politics_of_fiction'
p175
S'ElifShafak_2010G'
p176
sS'eleanor_longden_the_voices_in_my_head'
p177
S'EleanorLongden_2013'
p178
sS'brian_cox_what_went_wrong_at_the_lhc'
p179
S'BrianCox_2009U'
p180
sS'jay_bradner_open_source_cancer_research'
p181
S'JayBradner_2011X'
p182
sS'chris_milk_how_virtual_reality_can_create_the_ultimate_empathy_machine'
p183
S'ChrisMilk_2015'
p184
sS'reinventing_the_car'
p185
S'LarryBurns_2005'
p186
sS'renny_gleeson_404_the_story_of_a_page_not_found'
p187
S'RennyGleeson_2012U'
p188
sS'penelope_boston'
p189
S'PenelopeBoston_2006'
p190
sS'paul_ewald_asks_can_we_domesticate_germs'
p191
S'PaulEwald_2007'
p192
sS'kristen_ashburn_s_heart_rending_pictures_of_aids'
p193
S'KristenAshburn_2003'
p194
sS'paul_pholeros_how_to_reduce_poverty_fix_homes'
p195
S'PaulPholeros_2013X'
p196
sS'emily_balcetis_why_some_people_find_exercise_harder_than_others'
p197
S'EmilyBalcetis_2014X'
p198
sS'didier_sornette_how_we_can_predict_the_next_financial_crisis'
p199
S'DidierSornette_2013G'
p200
sS'salvatore_iaconesi_what_happened_when_i_open_sourced_my_brain_cancer'
p201
S'SalvatoreIaconesi_2013P'
p202
sS'bandi_mbubi_demand_a_fair_trade_cell_phone'
p203
S'BandiMbubi_2012X'
p204
sS'thomas_piketty_new_thoughts_on_capital_in_the_twenty_first_century'
p205
S'ThomasPiketty_2014S'
p206
sS'sirena_huang_dazzles_on_violin'
p207
S'SirenaHuang_2006'
p208
sS'joe_landolina_this_gel_can_make_you_stop_bleeding_instantly'
p209
S'JoeLandolina_2014U'
p210
sS'alain_de_botton_a_kinder_gentler_philosophy_of_success'
p211
S'AlaindeBotton_2009G'
p212
sS'parul_sehgal_an_ode_to_envy'
p213
S'ParulSehgal_2013S'
p214
sS'jacqueline_novogratz_invests_in_ending_poverty'
p215
S'JacquelineNovogratz_2005G'
p216
sS'isabelle_allende_how_to_live_passionately_no_matter_your_age'
p217
S'IsabelAllende_2014'
p218
sS'andy_puddicombe_all_it_takes_is_10_mindful_minutes'
p219
S'AndyPuddicombe_2012S'
p220
sS'dave_meslin_the_antidote_to_apathy'
p221
S'DaveMeslin_2010X'
p222
sS'chip_kidd_designing_books_is_no_laughing_matter_ok_it_is'
p223
S'ChipKidd_2012'
p224
sS'jarreth_merz_filming_democracy_in_ghana'
p225
S'JarrethMerz_2011G'
p226
sS'liu_bolin_the_invisible_man'
p227
S'LiuBolin_2013'
p228
sS'nizar_ibrahim_how_we_unearthed_the_spinosaurus'
p229
S'NizarIbrahim_2014Y'
p230
sS'mark_bittman_on_what_s_wrong_with_what_we_eat'
p231
S'MarkBittman_2007P'
p232
sS'camille_seaman_haunting_photos_of_ice'
p233
S'CamilleSeaman_2011U'
p234
sS'vicki_arroyo_let_s_prepare_for_our_new_climate'
p235
S'VickiArroyo_2012G'
p236
sS'homaro_cantu_ben_roche_cooking_as_alchemy'
p237
S'HomaroCantu_2011'
p238
sS'henry_lin_what_we_can_learn_from_galaxies_far_far_away'
p239
S'HenryLin_2013Y'
p240
sS'gabe_barcia_colombo_my_dna_vending_machine'
p241
S'GabeBarciaColombo_2013U'
p242
sS'robert_full_on_animal_movement'
p243
S'RobertFull_2005'
p244
sS'george_dyson_at_the_birth_of_the_computer'
p245
S'GeorgeDyson_2003'
p246
sS'garik_israelian_what_s_inside_a_star'
p247
S'GarikIsraelian_2009G'
p248
sS'sylvia_earle_s_ted_prize_wish_to_protect_our_oceans'
p249
S'SylviaEarle_2009'
p250
sS'mark_plotkin_what_the_people_of_the_amazon_know_that_you_don_t'
p251
S'MarkPlotkin_2014G'
p252
sS'marc_kushner_why_the_buildings_of_the_future_will_be_shaped_by_you'
p253
S'MarcKushner_2014'
p254
sS'bel_pesce_5_ways_to_kill_your_dreams'
p255
S'BelPesce_2014U'
p256
sS'david_kelley_on_human_centered_design'
p257
S'DavidKelley_2002'
p258
sS'pamela_meyer_how_to_spot_a_liar'
p259
S'PamelaMeyer_2011G'
p260
sS'greg_asner_ecology_from_the_air'
p261
S'GregAsner_2013G'
p262
sS'jarrett_krosoczka_why_lunch_ladies_are_heroes'
p263
S'JarrettKrosoczka_2014S'
p264
sS'jimmy_nelson_gorgeous_portraits_of_the_world_s_vanishing_people'
p265
S'JimmyNelson_2014G'
p266
sS'eddi_reader_sings_about_what_you_ve_got'
p267
S'EddiReader_WhatYouDo_2004'
p268
sS'monica_lewinsky_the_price_of_shame'
p269
S'MonicaLewinsky_2015'
p270
sS'brene_brown_on_vulnerability'
p271
S'BreneBrown_2010X'
p272
sS'jeff_iliff_one_more_reason_to_get_a_good_night_s_sleep'
p273
S'JeffIliff_2014P'
p274
sS'jody_williams_a_realistic_vision_for_world_peace'
p275
S'JodyWilliams_2010W'
p276
sS'david_christian_big_history'
p277
S'DavidChristian_2011'
p278
sS'julian_assange_why_the_world_needs_wikileaks'
p279
S'JulianAssange_2010G'
p280
sS'chris_mcknett_the_investment_logic_for_sustainability'
p281
S'ChrisMcKnett_2013S'
p282
sS'paul_tudor_jones_ii_why_we_need_to_rethink_capitalism'
p283
S'PaulTudorJones_2015-320k'
p284
sS'malcolm_gladwell_the_unheard_story_of_david_and_goliath'
p285
S'MalcolmGladwell_2013S'
p286
sS'patricia_kuhl_the_linguistic_genius_of_babies'
p287
S'PatriciaKuhl_2010X'
p288
sS'mike_degruy_hooked_by_octopus'
p289
S'MikedeGruy_2010Z'
p290
sS'kary_mullis_on_what_scientists_do'
p291
S'KaryMullis_2002'
p292
sS'herbie_hancock_s_all_star_set'
p293
S'HerbieHancock_2009'
p294
sS'rob_knight_how_our_microbes_make_us_who_we_are'
p295
S'RobKnight_2014'
p296
sS'joshua_prince_ramus_on_seattle_s_library'
p297
S'JoshuaPrinceRamus_2006'
p298
sS'torsten_reil_studies_biology_to_make_animation'
p299
S'TorstenReil_2003'
p300
sS'yanis_varoufakis_capitalism_will_eat_democracy_unless_we_speak_up'
p301
S'YanisVaroufakis_2015G'
p302
sS'anthony_atala_printing_a_human_kidney'
p303
S'AnthonyAtala_2011'
p304
sS'jamie_drummond_how_to_set_goals_for_the_world'
p305
S'JamieDrummond_2012G'
p306
sS'daniel_kahneman_the_riddle_of_experience_vs_memory'
p307
S'DanielKahneman_2010'
p308
sS'jon_gosier_the_problem_with_trickle_down_techonomics'
p309
S'JonGosier_2014U'
p310
sS'andrew_mcafee_what_will_future_jobs_look_like'
p311
S'AndrewMcAfee_2013'
p312
sS'julia_bacha'
p313
S'JuliaBacha_2011G'
p314
sS'john_gerzema_the_post_crisis_consumer'
p315
S'JohnGerzema_2009X'
p316
sS'janine_benyus_biomimicry_in_action'
p317
S'JanineBenyus_2009G'
p318
sS'justin_hall_tipping_freeing_energy_from_the_grid'
p319
S'JustinHallTipping_2011G'
p320
sS'sheena_iyengar_on_the_art_of_choosing'
p321
S'SheenaIyengar_2010G'
p322
sS'peter_eigen_how_to_expose_the_corrupt'
p323
S'PeterEigen_2009X'
p324
sS'jeff_han_demos_his_breakthrough_touchscreen'
p325
S'JeffHan_2006'
p326
sS'pearl_arredondo_my_story_from_gangland_daughter_to_star_teacher'
p327
S'PearlArredondo_2013S'
p328
sS'eddie_obeng_smart_failure_for_a_fast_changing_world'
p329
S'EddieObeng_2012G'
p330
sS'edith_widder_glowing_life_in_an_underwater_world'
p331
S'EdithWidder_2010Z'
p332
sS'nick_hanauer_beware_fellow_plutocrats_the_pitchforks_are_coming'
p333
S'NickHanauer_2014S'
p334
sS'eric_dishman_take_health_care_off_the_mainframe'
p335
S'EricDishman_2009P'
p336
sS'ze_frank_s_web_playroom'
p337
S'ZeFrank_2010G'
p338
sS'melvin_russell_i_love_being_a_police_officer_but_we_need_reform'
p339
S'MelvinRussell_2015X'
p340
sS'lewis_pugh_s_mind_shifting_mt_everest_swim'
p341
S'LewisPugh_2010G'
p342
sS'john_delaney_wiring_an_interactive_ocean'
p343
S'JohnDelaney_2010Z'
p344
sS'michael_dickinson_how_a_fly_flies'
p345
S'MichaelDickinson_2013X'
p346
sS'robert_muggah_how_to_protect_fast_growing_cities_from_failing'
p347
S'RobertMuggah_2014G'
p348
sS'jeremy_howard_the_wonderful_and_terrifying_implications_of_computers_that_can_learn'
p349
S'JeremyHoward_2014X'
p350
sS'simon_anholt_which_country_does_the_most_good_for_the_world'
p351
S'SimonAnholt_2014S'
p352
sS'tshering_tobgay_this_country_isn_t_just_carbon_neutral_it_s_carbon_negative'
p353
S'TsheringTobgay_2016'
p354
sS'tim_urban_inside_the_mind_of_a_master_procrastinator'
p355
S'TimUrban_2016'
p356
sS'lee_cronin_print_your_own_medicine'
p357
S'LeeCronin_2012G'
p358
sS'daniel_goldstein_the_battle_between_your_present_and_future_self'
p359
S'DanielGoldstein_2011S'
p360
sS'catarina_mota_play_with_smart_materials'
p361
S'CatarinaMota_2012G'
p362
sS'josette_sheeran_ending_hunger_now'
p363
S'JosetteSheeran_2011G'
p364
sS'dalia_mogahed_the_attitudes_that_sparked_arab_spring'
p365
S'DaliaMogahed_2012S'
p366
sS'gordon_brown_on_global_ethic_vs_national_interest'
p367
S'GordonBrown_QA_2009G'
p368
sS'naomi_klein_addicted_to_risk'
p369
S'NaomiKlein_2010W'
p370
sS'mother_and_daughter_doctor_heroes_hawa_abdi_deqo_mohamed'
p371
S'DrHawaAbdiandDrDeqoMohamed_2010W'
p372
sS'vilayanur_ramachandran_on_your_mind'
p373
S'VilayanurRamachandran_2007'
p374
sS'billy_collins_everyday_moments_caught_in_time'
p375
S'BillyCollins_2012'
p376
sS'bjarke_ingels_3_warp_speed_architecture_tales'
p377
S'BjarkeIngels_2009G'
p378
sS'clay_shirky_how_the_internet_will_one_day_transform_government'
p379
S'ClayShirky_2012G'
p380
sS'dave_eggers_makes_his_ted_prize_wish_once_upon_a_school'
p381
S'DaveEggers_2008'
p382
sS'a_robot_that_flies_like_a_bird'
p383
S'MarkusFischer_2011G'
p384
sS'shekhar_kapur_we_are_the_stories_we_tell_ourselves'
p385
S'ShekharKapur_2009I'
p386
sS'david_brooks_the_social_animal'
p387
S'DavidBrooks_2011'
p388
sS'dan_gilbert_researches_happiness'
p389
S'DanGilbert_2005G'
p390
sS'jose_abreu_on_kids_transformed_by_music'
p391
S'JoseAntonioAbreu_2009'
p392
sS'corneille_ewango_is_a_hero_of_the_congo_forest'
p393
S'CornielleEwango_2007G'
p394
sS'rebecca_mackinnon_let_s_take_back_the_internet'
p395
S'RebeccaMacKinnon_2011G'
p396
sS'yves_behar_on_designing_objects_that_tell_stories'
p397
S'YvesBehar_2008'
p398
sS'larry_smith_why_you_will_fail_to_have_a_great_career'
p399
S'LarrySmith_2011X'
p400
sS'ben_wellington_how_we_found_the_worst_place_to_park_in_new_york_city_using_big_data'
p401
S'BenWellington_2014X'
p402
sS'brenda_brathwaite_gaming_for_understanding'
p403
S'BrendaBrathwaite_2011X'
p404
sS'sheryl_wudunn_our_century_s_greatest_injustice'
p405
S'SherylWuDunn_2010G'
p406
sS'aj_jacobs_how_healthy_living_nearly_killed_me'
p407
S'AJJacobs_2011P'
p408
sS'anas_aremeyaw_anas_how_i_named_shamed_and_jailed'
p409
S'AnasAremeyawAnas_2013'
p410
sS'aziza_chaouni_how_i_brought_a_river_and_my_city_back_to_life'
p411
S'AzizaChaouni_2014U'
p412
sS'heather_barnett_what_humans_can_learn_from_semi_intelligent_slime_1'
p413
S'HeatherBarnett_2014S'
p414
sS'vusi_mahlasela_sings_thula_mama'
p415
S'VusiMahlasela_SongofMama_2007G'
p416
sS'david_byrne_sings_nothing_but_flowers'
p417
S'DavidByrne_Flowers_2010'
p418
sS'fredy_peccerelli_a_forensic_anthropologist_who_brings_closure_for_the_disappeared'
p419
S'FredyPeccerelli_2014Y'
p420
sS'jr_s_ted_prize_wish_use_art_to_turn_the_world_inside_out'
p421
S'JR_2011'
p422
sS'niall_ferguson_the_6_killer_apps_of_prosperity'
p423
S'NiallFerguson_2011G'
p424
sS'john_hockenberry_we_are_all_designers'
p425
S'JohnHockenberry_2012'
p426
sS'helen_fisher_tells_us_why_we_love_cheat'
p427
S'HelenFisher_2006'
p428
sS'sleepy_man_banjo_boys_bluegrass_virtuosity_from_new_jersey'
p429
S'SleepyManBanjoBoys_2013'
p430
sS'lisa_nip_how_humans_could_evolve_to_survive_in_space'
p431
S'LisaNip_2015X'
p432
sS'latif_nasser_you_have_no_idea_where_camels_really_come_from'
p433
S'LatifNasser_2015P'
p434
sS'dale_dougherty_we_are_makers'
p435
S'DaleDougherty_2011S'
p436
sS'the_lady_lifers_a_moving_song_from_women_in_prison_for_life'
p437
S'TheLadyLifers_2014X'
p438
sS'benjamin_wallace_on_the_price_of_happiness'
p439
S'BenjaminWallace_2008P'
p440
sS'debra_jarvis_yes_i_survived_cancer_but_that_doesn_t_define_me'
p441
S'DebraJarvis_2014P'
p442
sS'audrey_choi_how_to_make_a_profit_while_making_a_difference'
p443
S'AudreyChoi_2015S'
p444
sS'christophe_adami_finding_life_we_can_t_imagine'
p445
S'ChristophAdami_2011X'
p446
sS'aimee_mullins_on_running'
p447
S'AimeeMullins_1998'
p448
sS'paul_romer'
p449
S'PaulRomer_2009G'
p450
sS'tim_brown_on_creativity_and_play'
p451
S'TimBrown_2008P'
p452
sS'manuel_lima_a_visual_history_of_human_knowledge'
p453
S'ManuelLima_2015'
p454
sS'peter_diamandis_abundance_is_our_future'
p455
S'PeterDiamandis_2012'
p456
sS'steven_cowley_fusion_is_energy_s_future'
p457
S'StevenCowley_2009G'
p458
sS'david_kwong_two_nerdy_obsessions_meet_and_it_s_magic'
p459
S'DavidKwong_2014'
p460
sS'marc_pachter_the_art_of_the_interview'
p461
S'MarcPachter_2008P'
p462
sS'manu_prakash_a_50_cent_microscope_that_folds_like_origami'
p463
S'ManuPrakash_2012G'
p464
sS'eric_whitacre_virtual_choir_live'
p465
S'EricWhitacre_2013'
p466
sS'michael_porter_why_business_can_be_good_at_solving_social_problems'
p467
S'MichaelPorter_2013G'
p468
sS'siddharthan_chandran_can_the_damaged_brain_repair_itself'
p469
S'SiddharthanChandran_2013G'
p470
sS'don_norman_on_design_and_emotion'
p471
S'DonNorman_2003'
p472
sS'david_keith_s_surprising_ideas_on_climate_change'
p473
S'DavidKeith_2007S'
p474
sS'lakshmi_pratury_on_letter_writing'
p475
S'LakshmiPratury_2007'
p476
sS'mark_roth_suspended_animation'
p477
S'MarkRoth_2010'
p478
sS'liz_diller_plays_with_architecture'
p479
S'LizDiller_2007P'
p480
sS'george_whitesides_toward_a_science_of_simplicity'
p481
S'GeorgeWhitesides_2010'
p482
sS'jennifer_healey_if_cars_could_talk_accidents_might_be_avoidable'
p483
S'JenniferHealey_2013S'
p484
sS'iwan_baan_ingenious_homes_in_unexpected_places'
p485
S'IwanBaan_2013Z'
p486
sS'matt_kenyon_how_i_snuck_a_memorial_for_iraqi_civilians_into_the_us_government'
p487
S'MattKenyon_2015U'
p488
sS'david_macaulay_s_rome_antics'
p489
S'DavidMacaulay_2002'
p490
sS'marco_tempest_maybe_the_best_robot_demo_ever'
p491
S'MarcoTempest_2014'
p492
sS'allan_savory_how_to_green_the_world_s_deserts_and_reverse_climate_change'
p493
S'AllanSavory_2013'
p494
sS'dean_ornish_says_your_genes_are_not_your_fate'
p495
S'DeanOrnish_2008'
p496
sS'steve_keil_a_manifesto_for_play_for_bulgaria_and_beyond'
p497
S'SteveKeil_2011X'
p498
sS'diana_nyad_extreme_swimming_with_the_world_s_most_dangerous_jellyfish'
p499
S'DianaNyad_2011P'
p500
sS'robert_full_on_engineering_and_evolution'
p501
S'RobertFull_2002'
p502
sS'noah_feldman_says_politics_and_religion_are_technologies'
p503
S'NoahFeldman_2003'
p504
sS'rachel_botsman_the_currency_of_the_new_economy_is_trust'
p505
S'RachelBotsman_2012G'
p506
sS'larry_page_where_s_google_going_next'
p507
S'CharlieRose_2014'
p508
sS'dong_woo_jang_the_art_of_bow_making'
p509
S'DongWooJang_2013'
p510
sS'guy_philippe_goldstein_how_cyberattacks_threaten_real_world_peace'
p511
S'GuyPhilippeGoldstein_2010X'
p512
sS'william_noel_revealing_the_lost_codex_of_archimedes'
p513
S'WilliamNoel_2012S'
p514
sS'johanna_blakley_lessons_from_fashion_s_free_culture'
p515
S'JohannaBlakley_2010X'
p516
sS'andreas_raptopoulos_no_roads_there_s_a_drone_for_that'
p517
S'AndreasRaptopoulos_2013G'
p518
sS'edward_tenner_unintended_consequences'
p519
S'EdwardTenner_2011'
p520
sS'linda_hill_how_to_manage_for_collective_creativity'
p521
S'LindaHill_2014X'
p522
sS'dambisa_moyo_economic_growth_has_stalled_let_s_fix_it'
p523
S'DambisaMoyo_2015G'
p524
sS'tania_simoncelli_should_you_be_able_to_patent_a_human_gene'
p525
S'TaniaSimoncelli_2014X'
p526
sS'william_black_how_to_rob_a_bank_from_the_inside_that_is'
p527
S'WilliamBlack_2013X'
p528
sS'bruce_schneier'
p529
S'BruceSchneier_2010X'
p530
sS'david_r_dow_lessons_from_death_row_inmates'
p531
S'DavidDow_2012X'
p532
sS'craig_venter_unveils_synthetic_life'
p533
S'CraigVenter_2010P'
p534
sS'shai_reshef_a_tuition_free_college_degree'
p535
S'ShaiReshef_2014'
p536
sS'becci_manson_re_touching_lives_through_photos'
p537
S'BecciManson_2012G'
p538
sS'peter_ward_on_mass_extinctions'
p539
S'PeterWard_2008'
p540
sS'avi_reichental_what_s_next_in_3d_printing'
p541
S'AviReichental_2014'
p542
sS'chris_burkard_the_joy_of_surfing_in_ice_cold_water'
p543
S'ChrisBurkard_2015'
p544
sS'kevin_kelly_tells_technology_s_epic_story'
p545
S'KevinKelly_2009X'
p546
sS'eric_sanderson_pictures_new_york_before_the_city'
p547
S'EricSanderson_2009G'
p548
sS'david_deutsch_a_new_way_to_explain_explanation'
p549
S'DavidDeutsch_2009G'
p550
sS'andrew_blum_what_is_the_internet_really'
p551
S'AndrewBlum_2012G'
p552
sS'steven_johnson_on_the_web_as_a_city'
p553
S'StevenJohnson_2003'
p554
sS'dan_gross_why_gun_violence_can_t_be_our_new_normal'
p555
S'DanGross_2016'
p556
sS'catherine_mohr_builds_green'
p557
S'CatherineMohr_2010U'
p558
sS'ray_kurzweil_on_how_technology_will_transform_us'
p559
S'RayKurzweil_2005'
p560
sS'elaine_morgan_says_we_evolved_from_aquatic_apes'
p561
S'ElaineMorgan_2009G'
p562
sS'larry_brilliant_wants_to_stop_pandemics'
p563
S'LarryBrilliant_2006'
p564
sS'sergey_brin_why_google_glass'
p565
S'SergeyBrin_2013'
p566
sS'max_little_a_test_for_parkinson_s_with_a_phone_call'
p567
S'MaxLittle_2012G'
p568
sS'the_raspyni_brothers_juggle_and_jest'
p569
S'TheRaspyniBrothers_2002'
p570
sS'deborah_gordon_digs_ants'
p571
S'DeborahGordon_2003'
p572
sS'greg_lynn_on_organic_design'
p573
S'GregLynn_2005'
p574
sS'eli_beer_the_fastest_ambulance_a_motorcycle'
p575
S'EliBeer_2013P'
p576
sS'shai_agassi_on_electric_cars'
p577
S'ShaiAgassi_2009'
p578
sS'roger_ebert_remaking_my_voice'
p579
S'RogerEbert_2011'
p580
sS'wael_ghonim_inside_the_egyptian_revolution'
p581
S'WaelGhonim_2011X'
p582
sS't_boone_pickens_let_s_transform_energy_with_natural_gas'
p583
S'TBoonePickens_2012'
p584
sS'cynthia_schneider_the_surprising_spread_of_idol_tv'
p585
S'CynthiaSchneider_2009G'
p586
sS'allan_adams_the_discovery_that_could_rewrite_physics'
p587
S'AllanAdams_2014'
p588
sS'james_randi'
p589
S'JamesRandi_2007'
p590
sS'ben_katchor_s_comics_of_old_new_york'
p591
S'BenKatchor_2002'
p592
sS'andy_yen_think_your_email_s_private_think_again'
p593
S'AndyYen_2014G'
p594
sS'reed_kroloff_on_modern_and_romantic_architecture'
p595
S'ReedKroloff_2003'
p596
sS'hubertus_knabe_the_dark_secrets_of_a_surveillance_state'
p597
S'HubertusKnabe_2014S'
p598
sS'aaron_o_connell_making_sense_of_a_visible_quantum_object'
p599
S'AaronOConnell_2011'
p600
sS'sheena_iyengar_choosing_what_to_choose'
p601
S'SheenaIyengar_2011S'
p602
sS'michael_metcalfe_we_need_money_for_aid_so_let_s_print_it'
p603
S'MichaelMetcalfe_2013S'
p604
sS'ash_beckham_when_to_take_a_stand_and_when_to_let_it_go'
p605
S'AshBeckham_2014X'
p606
sS'aimee_mullins_the_opportunity_of_adversity'
p607
S'AimeeMullins_2009P'
p608
sS'timothy_prestero_design_for_people_not_awards'
p609
S'TimothyPrestero_2012X'
p610
sS'marcus_du_sautoy_symmetry_reality_s_riddle'
p611
S'MarcusduSautoy_2009G'
p612
sS'ramsey_musallam_3_rules_to_spark_learning'
p613
S'RamseyMusallam_2013S'
p614
sS'cesar_kuriyama_one_second_every_day'
p615
S'CesarKuriyama_2012'
p616
sS'nicholas_negroponte_in_1984_makes_5_predictions'
p617
S'NicholasNegroponte_1984'
p618
sS'bill_doyle_treating_cancer_with_electric_fields'
p619
S'BillDoyle_2011P'
p620
sS'milton_glaser_on_using_design_to_make_ideas_new'
p621
S'MiltonGlaser_1998'
p622
sS'teddy_cruz_how_architectural_innovations_migrate_across_borders'
p623
S'TeddyCruz_2013G'
p624
sS'sugata_mitra_the_child_driven_education'
p625
S'SugataMitra_2010G'
p626
sS'pw_singer_on_robots_of_war'
p627
S'PWSinger_2009'
p628
sS'paul_bennett_finds_design_in_the_details'
p629
S'PaulBennett_2005G'
p630
sS'carl_safina_the_oil_spill_s_unseen_culprits_victims'
p631
S'CarlSafina_2010X'
p632
sS'jedidah_isler_the_untapped_genius_that_could_change_science_for_the_better'
p633
S'JedidahIsler_2015F'
p634
sS'isabel_behncke_evolution_s_gift_of_play_from_bonobo_apes_to_humans'
p635
S'IsabelBehnckeIzquierdo_2011U'
p636
sS'robert_gupta_between_music_and_medicine'
p637
S'RobertGupta_2012P'
p638
sS'rick_warren_on_a_life_of_purpose'
p639
S'RickWarren_2006'
p640
sS'sean_carroll_distant_time_and_the_hint_of_a_multiverse'
p641
S'SeanCarroll_2010X'
p642
sS'al_gore_on_averting_climate_crisis'
p643
S'AlGore_2006'
p644
sS'george_dyson_on_project_orion'
p645
S'GeorgeDyson_2002'
p646
sS'derek_sivers_keep_your_goals_to_yourself'
p647
S'DerekSivers_2010G'
p648
sS'seth_priebatsch_the_game_layer_on_top_of_the_world'
p649
S'SethPriebatsch_2010X'
p650
sS'jim_al_khalili_how_quantum_biology_might_explain_life_s_biggest_questions'
p651
S'JimAlKhalili_2015G'
p652
sS'pam_warhurst_how_we_can_eat_our_landscapes'
p653
S'PamWarhurst_2012S'
p654
sS'award_winning_teen_age_science_in_action'
p655
S'GoogleScienceFairWinners_2011X'
p656
sS'yasheng_huang'
p657
S'YashengHuang_2011G'
p658
sS'sergei_lupashin_a_flying_camera_on_a_leash'
p659
S'SergeiLupashin_2014S'
p660
sS'david_sedlak_4_ways_we_can_avoid_a_catastrophic_drought'
p661
S'DavidSedlak_2015X'
p662
sS'arunachalam_muruganantham_how_i_started_a_sanitary_napkin_revolution'
p663
S'ArunachalamMuruganantham_2012S'
p664
sS'kim_gorgens_protecting_the_brain_against_concussion'
p665
S'KimGorgens_2010X'
p666
sS'marc_goodman_a_vision_of_crimes_in_the_future'
p667
S'MarcGoodman_2012G'
p668
sS'jim_holt_why_does_the_universe_exist'
p669
S'JimHolt_2014'
p670
sS'peter_saul_let_s_talk_about_dying'
p671
S'PeterSaul_2011X'
p672
sS'joseph_lekuton_tells_a_parable_for_kenya'
p673
S'JosephLekuton_2007G'
p674
sS'david_deutsch_on_our_place_in_the_cosmos'
p675
S'DavidDeutsch_2005G'
p676
sS'andrew_fitzgerald_adventures_in_twitter_fiction'
p677
S'AndrewFitzgerald_2013S'
p678
sS'kristina_gjerde_making_law_on_the_high_seas'
p679
S'KristinaGjerde_2010Z'
p680
sS'lee_mokobe_a_powerful_poem_about_what_it_feels_like_to_be_transgender'
p681
S'LeeMokobe_2015W'
p682
sS'ben_kacyra_ancient_wonders_captured_in_3d'
p683
S'BenKacyra_2011G'
p684
sS'zainab_salbi'
p685
S'ZainabSalbi_2010G'
p686
sS'shubhendu_sharma_how_to_grow_a_tiny_forest_anywhere'
p687
S'ShubhenduSharma_2014U'
p688
sS'john_bohannon_dance_vs_powerpoint_a_modest_proposal'
p689
S'JohnBohannon_2011X'
p690
sS'tal_golesworthy_how_i_repaired_my_own_heart'
p691
S'TalGolesworthy_2011X'
p692
sS'antonio_damasio_the_quest_to_understand_consciousness'
p693
S'AntonioDamasio_2011'
p694
sS'laura_schulz_the_surprisingly_logical_minds_of_babies'
p695
S'LauraSchulz_2015'
p696
sS'zeynep_tufekci_how_the_internet_has_made_social_change_easy_to_organize_hard_to_win'
p697
S'ZeynepTufekci_2014G'
p698
sS'jeremy_heimans_what_new_power_looks_like'
p699
S'JeremyHeimans_2014S'
p700
sS'louie_schwartzberg_nature_beauty_gratitude'
p701
S'LouieSchwartzberg_2011X'
p702
sS'jonathan_haidt_how_common_threats_can_make_common_political_ground'
p703
S'JonathanHaidt_2012S'
p704
sS'kelly_mcgonigal_how_to_make_stress_your_friend'
p705
S'KellyMcGonigal_2013G'
p706
sS'seth_shostak_et_is_probably_out_there_get_ready'
p707
S'SethShostak_2012X'
p708
sS'scott_mccloud_on_comics'
p709
S'ScottMcCloud_2005'
p710
sS'blaise_aguera'
p711
S'BlaiseAguerayArcas_2010'
p712
sS'charmian_gooch_my_wish_to_launch_a_new_era_of_openness_in_business'
p713
S'CharmianGooch_2014'
p714
sS'jim_simons_a_rare_interview_with_the_mathematician_who_cracked_wall_street'
p715
S'JimSimons_2015'
p716
sS'peter_reinhart_on_bread'
p717
S'PeterReinhart_2008P'
p718
sS'eric_x_li_a_tale_of_two_political_systems'
p719
S'EricXLi_2013G'
p720
sS'scilla_elworthy_fighting_with_non_violence'
p721
S'ScillaElworthy_2012X'
p722
sS'a_whistleblower_you_haven_t_heard'
p723
S'GeertChatrou_2010X'
p724
sS'jeff_speck_the_walkable_city'
p725
S'JeffSpeck_2013Z'
p726
sS'bill_clinton_on_rebuilding_rwanda'
p727
S'BillClinton_2007'
p728
sS'pico_iyer_the_art_of_stillness'
p729
S'PicoIyer_2014S'
p730
sS'moshe_safdie_on_building_uniqueness'
p731
S'MosheSafdie_2002'
p732
sS'john_francis_walks_the_earth'
p733
S'JohnFrancis_2008'
p734
sS'cynthia_breazeal_the_rise_of_personal_robots'
p735
S'CynthiaBreazeal_2010W'
p736
sS'stefan_sagmeister_the_power_of_time_off'
p737
S'StefanSagmeister_2009G'
p738
sS'barbara_natterson_horowitz_what_veterinarians_know_that_doctors_don_t'
p739
S'BarbaraNattersonHorowitz_2014P'
p740
sS'bob_thurman_says_we_can_be_buddhas'
p741
S'RobertThurman_2006S'
p742
sS'jessi_arrington_wearing_nothing_new'
p743
S'JessiArrington_2011A'
p744
sS'mark_ronson_how_sampling_transformed_music'
p745
S'MarkRonson_2014'
p746
sS'nathan_wolfe_hunts_for_the_next_aids'
p747
S'NathanWolfe_2009'
p748
sS'paul_stamets_on_6_ways_mushrooms_can_save_the_world'
p749
S'PaulStamets_2008'
p750
sS'francis_collins_we_need_better_drugs_now'
p751
S'FrancisCollins_2012P'
p752
sS'gian_giudice_why_our_universe_might_exist_on_a_knife_edge'
p753
S'GianGiudice_2013X'
p754
sS'seth_berkley_hiv_and_flu_the_vaccine_strategy'
p755
S'SethBerkley_2010'
p756
sS'beverly_dereck_joubert_life_lessons_from_big_cats'
p757
S'BeverlyJoubertandDereckJoubert_2010W'
p758
sS'paola_antonelli_previews_design_and_the_elastic_mind'
p759
S'PaolaAntonelli_2007P'
p760
sS'brian_greene_on_string_theory'
p761
S'BrianGreene_2005'
p762
sS'jack_horner_building_a_dinosaur_from_a_chicken'
p763
S'JackHorner_2011'
p764
sS'margaret_stewart_how_youtube_thinks_about_copyright'
p765
S'MargaretStewart_2010U'
p766
sS'michael_merzenich_on_the_elastic_brain'
p767
S'MichaelMerzenich_2004'
p768
sS'mae_jemison_on_teaching_arts_and_sciences_together'
p769
S'MaeJemison_2002'
p770
sS'william_kamkwamba_how_i_harnessed_the_wind'
p771
S'WilliamKamkwamba_2009G'
p772
sS'myriam_sidibe_the_simple_power_of_hand_washing'
p773
S'MyriamSidibe_2014S'
p774
sS'boghuma_kabisen_titanji_ethical_riddles_in_hiv_research'
p775
S'BoghumaKabisenTitanji_2012X'
p776
sS'ash_beckham_we_re_all_hiding_something_let_s_find_the_courage_to_open_up'
p777
S'AshBeckham_2013X'
p778
sS'wayne_mcgregor_a_choreographer_s_creative_process_in_real_time'
p779
S'WayneMcGregor_2012G'
p780
sS'michael_pollan_gives_a_plant_s_eye_view'
p781
S'MichaelPollan_2007'
p782
sS'michael_green_what_the_social_progress_index_can_reveal_about_your_country'
p783
S'MichaelGreen_2014G'
p784
sS'rodney_brooks_on_robots'
p785
S'RodneyBrooks_2003'
p786
sS'paul_snelgrove_a_census_of_the_ocean'
p787
S'PaulSnelgrove_2011G'
p788
sS'afra_raymond_three_myths_about_corruption'
p789
S'AfraRaymond_2012X'
p790
sS'robert_neuwirth_the_power_of_the_informal_economy'
p791
S'RobertNeuwirth_2012G'
p792
sS'john_wilbanks_let_s_pool_our_medical_data'
p793
S'JohnWilbanks_2012G'
p794
sS'david_bolinsky_animates_a_cell'
p795
S'DavidBolinsky_2007'
p796
sS'dan_dennett_s_response_to_rick_warren'
p797
S'DanDennett_2006'
p798
sS'abraham_verghese_a_doctor_s_touch'
p799
S'AbrahamVerghese_2011G'
p800
sS'julian_treasure_shh_sound_health_in_8_steps'
p801
S'JulianTreasure_2010G'
p802
sS'clint_smith_how_to_raise_a_black_son_in_america'
p803
S'ClintSmith_2015'
p804
sS'margaret_heffernan_the_dangers_of_willful_blindness'
p805
S'MargaretHeffernan_2013X'
p806
sS'paul_moller_on_the_skycar'
p807
S'PaulMoller_2004'
p808
sS'jan_chipchase_on_our_mobile_phones'
p809
S'JanChipchase_2007'
p810
sS'bill_ford_a_future_beyond_traffic_gridlock'
p811
S'BillFord_2011'
p812
sS'leonard_susskind_my_friend_richard_feynman'
p813
S'LeonardSusskind_2011X'
p814
sS'caroline_phillips_hurdy_gurdy_for_beginners'
p815
S'CarolinePhillips_2010G'
p816
sS'gregoire_courtine_the_paralyzed_rat_that_walked'
p817
S'GregoireCourtine_2013G'
p818
sS'david_eagleman_can_we_create_new_senses_for_humans'
p819
S'DavidEagleman_2015'
p820
sS'suheir_hammad_poems_of_war_peace_women_power'
p821
S'SuheirHammad_2010W'
p822
sS'neil_macgregor_2600_years_of_history_in_one_object'
p823
S'NeilMacGregor_2011G'
p824
sS'dan_buettner_how_to_live_to_be_100'
p825
S'DanBuettner_2009X'
p826
sS'tom_uglow_an_internet_without_screens_might_look_like_this'
p827
S'TomUglow_2015X'
p828
sS'malcolm_london_high_school_training_ground'
p829
S'MalcolmLondon_2013S'
p830
sS'daria_van_den_bercken_why_i_take_the_piano_on_the_road_and_in_the_air'
p831
S'DariavandenBercken_2014S'
p832
sS'ami_klin_a_new_way_to_diagnose_autism'
p833
S'AmiKlin_2011X'
p834
sS'peter_attia_what_if_we_re_wrong_about_diabetes'
p835
S'PeterAttia_2013P'
p836
sS'jarrett_j_krosoczka_how_a_boy_became_an_artist'
p837
S'JarrettJKrosoczka_2012X'
p838
sS'mena_trott_tours_her_blog_world'
p839
S'MenaTrott_2006'
p840
sS'meaghan_ramsey_why_thinking_you_re_ugly_is_bad_for_you'
p841
S'MeaghanRamsey_2014S'
p842
sS'dennis_vanengelsdorp_a_plea_for_bees'
p843
S'DennisvanEngelsdorp_2008P'
p844
sS'antony_gormley_sculpted_space_within_and_without'
p845
S'AntonyGormley_2012G'
p846
sS'john_lloyd_inventories_the_invisible'
p847
S'JohnLloyd_2009G'
p848
sS'paddy_ashdown_the_global_power_shift'
p849
S'PaddyAshdown_2011X'
p850
sS'anne_curzan_what_makes_a_word_real'
p851
S'AnneCurzan_2014X'
p852
sS'fields_wicker_miurin_learning_from_leadership_s_missing_manual'
p853
S'FieldsWickerMiurin_2009S'
p854
sS'lisa_margonelli_the_political_chemistry_of_oil'
p855
S'LisaMargonelli_2010X'
p856
sS'del_harvey_the_strangeness_of_scale_at_twitter'
p857
S'DelHarvey_2014'
p858
sS'pawan_sinha_on_how_brains_learn_to_see'
p859
S'PawanSinha_2009I'
p860
sS'richard_st_john_s_8_secrets_of_success'
p861
S'RichardStJohn_2005'
p862
sS'bj_miller_what_really_matters_at_the_end_of_life'
p863
S'BJMiller_2015'
p864
sS'renny_gleeson_on_antisocial_phone_tricks'
p865
S'RennyGleeson_2009'
p866
sS'danielle_de_niese_a_flirtatious_aria'
p867
S'DanielleDeNiese_2011G'
p868
sS'reggie_watts_disorients_you_in_the_most_entertaining_way'
p869
S'ReggieWatts_2012'
p870
sS'carne_ross_an_independent_diplomat'
p871
S'CarneRoss_2009P'
p872
sS'charlie_todd_the_shared_experience_of_absurdity'
p873
S'CharlieTodd_2011X'
p874
sS'maira_kalman_the_illustrated_woman'
p875
S'MairaKalman_2007'
p876
sS'roberto_d_angelo_francesca_fedeli_in_our_baby_s_illness_a_life_lesson'
p877
S'RobertoDAngelo_2013G'
p878
sS'rodney_mullen_pop_an_ollie_and_innovate'
p879
S'RodneyMullen_2012X'
p880
sS'al_gore_the_case_for_optimism_on_climate_change'
p881
S'AlGore_2016'
p882
sS'gary_kovacs_tracking_the_trackers'
p883
S'GaryKovacs_2012U'
p884
sS'miguel_nicolelis_a_monkey_that_controls_a_robot_with_its_thoughts_no_really'
p885
S'MiguelNicolelis_2012P'
p886
sS'barry_schwartz_on_our_loss_of_wisdom'
p887
S'BarrySchwartz_2009'
p888
sS'stuart_firestein_the_pursuit_of_ignorance'
p889
S'StuartFirestein_2013'
p890
sS'paolo_cardini_forget_multitasking_try_monotasking'
p891
S'PaoloCardini_2012G'
p892
sS'gregory_petsko_on_the_coming_neurological_epidemic'
p893
S'GregoryPetsko_2008'
p894
sS'adam_sadowsky_engineers_a_viral_music_video'
p895
S'AdamSadowsky_2010X'
p896
sS'brian_dettmer_old_books_reborn_as_intricate_art'
p897
S'BrianDettmer_2014Y'
p898
sS'trita_parsi_iran_and_israel_peace_is_possible'
p899
S'TritaParsi_2013G'
p900
sS'imam_feisal_abdul_rauf'
p901
S'ImamFeisalAbdulRauf_2009P'
p902
sS'daniel_wolpert_the_real_reason_for_brains'
p903
S'DanielWolpert_2011G'
p904
sS'tim_berners_lee_on_the_next_web'
p905
S'TimBernersLee_2009'
p906
sS'charles_elachi_on_the_mars_rovers'
p907
S'CharlesElachi_2008P'
p908
sS'james_cameron_before_avatar_a_curious_boy'
p909
S'JamesCameron_2010'
p910
sS'sunni_brown'
p911
S'SunniBrown_2011'
p912
sS'sasa_vucinic_invests_in_free_press'
p913
S'SasaVucinic_2005G'
p914
sS'gavin_schmidt_the_emergent_patterns_of_climate_change'
p915
S'GavinSchmidt_2014'
p916
sS'sugata_mitra_build_a_school_in_the_cloud'
p917
S'SugataMitra_2013'
p918
sS'dan_pallotta_the_way_we_think_about_charity_is_dead_wrong'
p919
S'DanPallotta_2013'
p920
sS'dimitar_sasselov_how_we_found_hundreds_of_potential_earth_like_planets'
p921
S'DimitarSasselov_2010G'
p922
sS'richard_preston_on_the_giant_trees'
p923
S'RichardPreston_2008'
p924
sS'aaron_huey'
p925
S'AaronHuey_2010X'
p926
sS'gary_wolf_the_quantified_self'
p927
S'GaryWolf_2010S'
p928
sS'jacqueline_novogratz_on_patient_capitalism'
p929
S'JacquelineNovogratz_2007G'
p930
sS'karen_armstrong_makes_her_ted_prize_wish_the_charter_for_compassion'
p931
S'KarenArmstrong_2008'
p932
sS'janette_sadik_khan_new_york_s_streets_not_so_mean_any_more'
p933
S'JanetteSadikKhan_2013Z'
p934
sS'andrew_bird_s_one_man_orchestra_of_the_imagination'
p935
S'AndrewBird_2010'
p936
sS'cesar_harada_how_i_teach_kids_to_love_science'
p937
S'CesarHarada_2015F'
p938
sS'eric_topol_the_wireless_future_of_medicine'
p939
S'EricTopol_2009P'
p940
sS'ross_lovegrove_shares_organic_designs'
p941
S'RossLovegrove_2005'
p942
sS'chris_anderson_of_wired_on_tech_s_long_tail'
p943
S'ChrisAnderson_2004'
p944
sS'noy_thrupkaew_human_trafficking_is_all_around_you_this_is_how_it_works'
p945
S'NoyThrupkaew_2015'
p946
sS'anne_milgram_why_smart_statistics_are_the_key_to_fighting_crime'
p947
S'AnneMilgram_2013S'
p948
sS'peter_van_uhm_why_i_chose_a_gun'
p949
S'PetervanUhm_2011X'
p950
sS'ramona_pierson_an_unexpected_place_of_healing'
p951
S'RamonaPierson_2011X'
p952
sS'mathias_jud_art_that_lets_you_talk_back_to_nsa_spies'
p953
S'MathiasJud_2015G'
p954
sS'willard_wigan_hold_your_breath_for_micro_sculpture'
p955
S'WillardWigan_2009G'
p956
sS'misha_glenny_investigates_global_crime_networks'
p957
S'MishaGlenny_2009G'
p958
sS'alaa_murabit_what_my_religion_really_says_about_women'
p959
S'AlaaMurabit_2015W'
p960
sS'christopher_mcdougall_are_we_born_to_run'
p961
S'ChristopherMcDougall_2010X'
p962
sS'susan_colantuono_the_career_advice_you_probably_didn_t_get'
p963
S'SusanColantuono_2013X'
p964
sS'george_papandreou_imagine_a_european_democracy_without_borders'
p965
S'GeorgePapandreou_2013G'
p966
sS'adam_savage_s_obsessions'
p967
S'AdamSavage_2008P'
p968
sS'edward_burtynsky_on_manufactured_landscapes'
p969
S'EdwardBurtynsky_2005'
p970
sS'majora_carter_s_tale_of_urban_renewal'
p971
S'MajoraCarter_2006'
p972
sS'derek_sivers_weird_or_just_different'
p973
S'DerekSivers_2009I'
p974
sS'his_holiness_the_karmapa_the_technology_of_the_heart'
p975
S'HisHolinessTheKarmapa_2009I'
p976
sS'malcolm_gladwell_on_spaghetti_sauce'
p977
S'MalcolmGladwell_2004'
p978
sS'stewart_brand_on_the_long_now'
p979
S'StewartBrand_2004'
p980
sS'jean_paul_mari_the_chilling_aftershock_of_a_brush_with_death'
p981
S'JeanPaulMari_2015X'
p982
sS'sendhil_mullainathan'
p983
S'SendhilMullainathan_2009I'
p984
sS'sara_lewis_the_loves_and_lies_of_fireflies'
p985
S'SaraLewis_2014'
p986
sS'kate_stone_dj_decks_made_of_paper'
p987
S'KateStone_2013'
p988
sS'shonda_rhimes_my_year_of_saying_yes_to_everything'
p989
S'ShondaRhimes_2016'
p990
sS'elizabeth_loftus_the_fiction_of_memory'
p991
S'ElizabethLoftus_2013G'
p992
sS'malcolm_gladwell'
p993
S'MalcolmGladwell_2011G'
p994
sS'kwame_anthony_appiah_is_religion_good_or_bad_this_is_a_trick_question'
p995
S'KwameAnthonyAppiah_2014S'
p996
sS'alan_siegel_let_s_simplify_legal_jargon'
p997
S'AlanSiegel_2010'
p998
sS'robert_thurman_on_compassion'
p999
S'RobertThurman_2009P'
p1000
sS'peter_diamandis_on_stephen_hawking_in_zero_g'
p1001
S'PeterDiamandis_2008'
p1002
sS'onora_o_neill_what_we_don_t_understand_about_trust'
p1003
S'OnoraONeill_2013X'
p1004
sS'mohamed_ali_the_link_between_unemployment_and_terrorism'
p1005
S'MohamedAli_2013Z'
p1006
sS'kristen_marhaver_how_we_re_growing_baby_corals_to_rebuild_reefs'
p1007
S'KristenMarhaver_2015Z'
p1008
sS'sanjay_dastoor_a_skateboard_with_a_boost'
p1009
S'SanjayDastoor_2013'
p1010
sS'eddi_reader_sings_kiteflyer_s_hill'
p1011
S'EddiReader_KiteflyersHill_2004'
p1012
sS'jaime_lerner_sings_of_the_city'
p1013
S'JaimeLerner_2007'
p1014
sS'khadija_gbla_my_mother_s_strange_definition_of_empowerment'
p1015
S'KhadijaGbla_2014X'
p1016
sS'mark_applebaum_the_mad_scientist_of_music'
p1017
S'MarkApplebaum_2012X'
p1018
sS'lisa_gansky_the_future_of_business_is_the_mesh'
p1019
S'LisaGansky_2011S'
p1020
sS'keith_chen_could_your_language_affect_your_ability_to_save_money'
p1021
S'KeithChen_2012G'
p1022
sS'taryn_simon_photographs_secret_sites'
p1023
S'TarynSimon_2009G'
p1024
sS'gabby_giffords_and_mark_kelly_be_passionate_be_courageous_be_your_best'
p1025
S'GabbyGiffords_2014'
p1026
sS'emiliano_salinas_a_civil_response_to_violence'
p1027
S'EmilianoSalinas_2010X'
p1028
sS'cary_fowler_one_seed_at_a_time_protecting_the_future_of_food'
p1029
S'CaryFowler_2009G'
p1030
sS'meg_jay_why_30_is_not_the_new_20'
p1031
S'MegJay_2013'
p1032
sS'peter_diamandis_on_our_next_giant_leap'
p1033
S'PeterDiamandis_2005G'
p1034
sS'michael_norton_how_to_buy_happiness'
p1035
S'MichaelNorton_2011X'
p1036
sS'courtney_martin_reinventing_feminism'
p1037
S'CourtneyMartin_2010W'
p1038
sS'xavier_vilalta_architecture_at_home_in_its_community'
p1039
S'XavierVilalta_2013G'
p1040
sS'uldus_bakhtiozina_wry_photos_that_turn_stereotypes_upside_down'
p1041
S'UldusBakhtiozina_2014U'
p1042
sS'peter_doolittle_how_your_working_memory_makes_sense_of_the_world'
p1043
S'PeterDoolittle_2013G'
p1044
sS'david_merrill_demos_siftables_the_smart_blocks'
p1045
S'DavidMerrill_2009'
p1046
sS'clay_shirky_how_cognitive_surplus_will_change_the_world'
p1047
S'ClayShirky_2010S'
p1048
sS'ellen_jorgensen_biohacking_you_can_do_it_too'
p1049
S'EllenJorgensen_2012G'
p1050
sS'shabana_basij_rasikh_dare_to_educate_afghan_girls'
p1051
S'ShabanaBasijRasikh_2012X'
p1052
sS'andrew_solomon_how_the_worst_moments_in_our_lives_make_us_who_we_are'
p1053
S'AndrewSolomon_2014'
p1054
sS'sandrine_thuret_you_can_grow_new_brain_cells_here_s_how'
p1055
S'SandrineThuret_2015S'
p1056
sS'publisher_felix_dennis_odes_to_vice_and_consequences'
p1057
S'FelixDennis_2004'
p1058
sS'david_steindl_rast_want_to_be_happy_be_grateful'
p1059
S'DavidSteindlRast_2013G'
p1060
sS'jd_schramm'
p1061
S'JDSchramm_2011A'
p1062
sS'bruce_feiler_agile_programming_for_your_family'
p1063
S'BruceFeiler_2013S'
p1064
sS'hans_rosling_reveals_new_insights_on_poverty'
p1065
S'HansRosling_2007'
p1066
sS'john_walker_re_creates_great_performances'
p1067
S'JohnWalker_2007P'
p1068
sS'will_potter_the_shocking_move_to_criminalize_non_violent_protest'
p1069
S'WillPotter_2014U'
p1070
sS'dan_berkenstock_the_world_is_one_big_dataset_now_how_to_photograph_it'
p1071
S'DanBerkenstock_2013S'
p1072
sS'morgana_bailey_the_danger_of_hiding_who_you_are'
p1073
S'MorganaBailey_2014S'
p1074
sS'andres_lozano_parkinson_s_depression_and_the_switch_that_might_turn_them_off'
p1075
S'AndresLozano_2013X'
p1076
sS'mark_bezos_a_life_lesson_from_a_volunteer_firefighter'
p1077
S'MarkBezos_2011U'
p1078
sS'nancy_frates_why_my_family_started_the_als_ice_bucket_challenge_the_rest_is_history'
p1079
S'NancyFrates_2014X'
p1080
sS'jeff_bezos_on_the_next_web_innovation'
p1081
S'JeffBezos_2003'
p1082
sS'robert_gupta_and_joshua_roman_duet_on_passacaglia'
p1083
S'RobertGupta_2011U'
p1084
sS'amy_tan_on_creativity'
p1085
S'AmyTan_2008'
p1086
sS'sophie_scott_why_we_laugh'
p1087
S'SophieScott_2015'
p1088
sS'latif_nasser_the_amazing_story_of_the_man_who_gave_us_modern_pain_relief'
p1089
S'LatifNasser_2015'
p1090
sS'leyla_acaroglu_paper_beats_plastic_how_to_rethink_environmental_folklore'
p1091
S'LeylaAcaroglu_2013'
p1092
sS'dan_barber_s_surprising_foie_gras_parable'
p1093
S'DanBarber_2008P'
p1094
sS'tony_porter_a_call_to_men'
p1095
S'TonyPorter_2010W'
p1096
sS'todd_humphreys_how_to_fool_a_gps'
p1097
S'ToddHumphreys_2012X'
p1098
sS'erik_johansson_impossible_photography'
p1099
S'ErikJohansson_2011S'
p1100
sS'alberto_cairo_there_are_no_scraps_of_men'
p1101
S'AlbertoCairo_2011X'
p1102
sS'jill_tarter_s_call_to_join_the_seti_search'
p1103
S'JillTarter_2009'
p1104
sS'eve_ensler_embrace_your_inner_girl'
p1105
S'EveEnsler_2009I'
p1106
sS'rives_a_museum_of_4_o_clock_in_the_morning'
p1107
S'Rives_2014A'
p1108
sS'cristina_domenech_poetry_that_frees_the_soul'
p1109
S'CristinaDomenech_2014X'
p1110
sS'annmarie_thomas_squishy_circuits'
p1111
S'AnnMarieThomas_2011'
p1112
sS'sam_richards_a_radical_experiment_in_empathy'
p1113
S'SamRichards_2010X'
p1114
sS'eva_zeisel_on_the_playful_search_for_beauty'
p1115
S'EvaZeisel_2001'
p1116
sS'paul_conneally_digital_humanitarianism'
p1117
S'PaulConneally_2011X'
p1118
sS'john_maeda_on_design'
p1119
S'JohnMaeda_2008P'
p1120
sS'chris_anderson_how_web_video_powers_global_innovation'
p1121
S'ChrisAnderson_2010G'
p1122
sS'michael_pritchard_invents_a_water_filter'
p1123
S'MichaelPritchard_2009G'
p1124
sS'matthew_williams_special_olympics_let_me_be_myself_a_champion'
p1125
S'MatthewWilliams_2015X'
p1126
sS'gavin_pretor_pinney_cloudy_with_a_chance_of_joy'
p1127
S'GavinPretorPinney_2013G'
p1128
sS'ludwick_marishane_a_bath_without_water'
p1129
S'LudwickMarishane_2012S'
p1130
sS'doris_kim_sung_metal_that_breathes'
p1131
S'DorisKimSung_2012X'
p1132
sS'seth_godin_on_sliced_bread'
p1133
S'SethGodin_2003'
p1134
sS'caroline_lavelle_casts_a_spell_on_cello'
p1135
S'CarolineLavelle_FartherthantheSun_2005'
p1136
sS'harald_haas_a_breakthrough_new_kind_of_wireless_internet'
p1137
S'HaraldHaas_2015G'
p1138
sS'marco_annunziata_welcome_to_the_age_of_the_industrial_internet'
p1139
S'MarcoAnnunziata_2013S'
p1140
sS'frances_larson_why_public_beheadings_get_millions_of_views'
p1141
S'FrancesLarson_2015G'
p1142
sS'vs_ramachandran_the_neurons_that_shaped_civilization'
p1143
S'VilayanurRamachandran_2009I'
p1144
sS'david_pogue_10_top_time_saving_tech_tips'
p1145
S'DavidPogue_2013U'
p1146
sS'michael_anti_behind_the_great_firewall_of_china'
p1147
S'MichaelAnti_2012G'
p1148
sS'david_hoffman_on_losing_everything'
p1149
S'DavidHoffman_2008'
p1150
sS'dean_ornish_on_the_world_s_killer_diet'
p1151
S'DeanOrnish_2006'
p1152
sS'mustafa_akyol_faith_versus_tradition_in_islam'
p1153
S'MustafaAkyol_2011X'
p1154
sS'heribert_watzke_the_brain_in_your_gut'
p1155
S'HeribertWatzke_2010G'
p1156
sS'jill_heinerth_the_mysterious_world_of_underwater_caves'
p1157
S'JillHeinerth_2015Y'
p1158
sS'elliot_krane_the_mystery_of_chronic_pain'
p1159
S'ElliotKrane_2011U'
p1160
sS'magda_sayeg_how_yarn_bombing_grew_into_a_worldwide_movement'
p1161
S'MagdaSayeg_2015Y'
p1162
sS'damon_horowitz_philosophy_in_prison'
p1163
S'DamonHorowitz_2011'
p1164
sS'andrew_stanton_the_clues_to_a_great_story'
p1165
S'AndrewStanton_2012'
p1166
sS'megan_washington_why_i_live_in_mortal_dread_of_public_speaking'
p1167
S'MeganWashington_2014X'
p1168
sS'yuval_noah_harari_what_explains_the_rise_of_humans'
p1169
S'YuvalNoahHarari_2015G'
p1170
sS'robert_neuwirth_on_our_shadow_cities'
p1171
S'RobertNeuwirth_2005G'
p1172
sS'richard_wilkinson'
p1173
S'RichardWilkinson_2011G'
p1174
sS'eric_whitacre_a_virtual_choir_2_000_voices_strong'
p1175
S'EricWhitacre_2011'
p1176
sS'rives_on_4_a_m'
p1177
S'Rives_4AM_2007'
p1178
sS'svante_paeaebo_dna_clues_to_our_inner_neanderthal'
p1179
S'SvantePaabo_2011G'
p1180
sS'stewart_brand_proclaims_4_environmental_heresies'
p1181
S'StewartBrand_2009S'
p1182
sS'joan_halifax'
p1183
S'JoanHalifax_2010W'
p1184
sS'suki_kim_this_is_what_it_s_like_to_go_undercover_in_north_korea'
p1185
S'SukiKim_2015'
p1186
sS'robert_fischell_on_medical_inventing'
p1187
S'RobertFischell_2005'
p1188
sS'eva_vertes_looks_to_the_future_of_medicine'
p1189
S'EvaVertes_2005'
p1190
sS'kevin_slavin_how_algorithms_shape_our_world'
p1191
S'KevinSlavin_2011G'
p1192
sS'steven_levitt_analyzes_crack_economics'
p1193
S'StevenLevitt_2004'
p1194
sS'sara_seager_the_search_for_planets_beyond_our_solar_system'
p1195
S'SaraSeager_2015'
p1196
sS'rives_controls_the_internet'
p1197
S'Rives_IfIControlledtheInternet_2006S'
p1198
sS'chris_domas_the_1s_and_0s_behind_cyber_warfare'
p1199
S'ChrisDomas_2013X'
p1200
sS'kelli_swazey_life_that_doesn_t_end_with_death'
p1201
S'KelliSwazey_2013P'
p1202
sS'alison_jackson_looks_at_celebrity'
p1203
S'AlisonJackson_2005G'
p1204
sS'steven_addis_a_father_daughter_bond_one_photo_at_a_time'
p1205
S'StevenAddis_2012'
p1206
sS'elyn_saks_seeing_mental_illness'
p1207
S'ElynSaks_2012G'
p1208
sS'memory_banda_a_warrior_s_cry_against_child_marriage'
p1209
S'MemoryBanda_2015W'
p1210
sS'robert_lang_folds_way_new_origami'
p1211
S'RobertLang_2008'
p1212
sS'kimberley_motley_how_i_defend_the_rule_of_law'
p1213
S'KimberleyMotley_2014G'
p1214
sS'louie_schwartzberg_hidden_miracles_of_the_natural_world'
p1215
S'LouieSchwartzberg_2014'
p1216
sS'stephen_petranek_counts_down_to_armageddon'
p1217
S'StevenPetranek_2002'
p1218
sS'mellody_hobson_color_blind_or_color_brave'
p1219
S'MellodyHobson_2014'
p1220
sS'hamish_jolly_a_shark_deterrent_wetsuit_and_it_s_not_what_you_think'
p1221
S'HamishJolly_2013X'
p1222
sS'rory_stewart_time_to_end_the_war_in_afghanistan'
p1223
S'RoryStewart_2011G'
p1224
sS'c_k_williams_reads_poetry_of_youth_and_age'
p1225
S'CKWilliams_2001'
p1226
sS'nicolas_perony_puppies_now_that_i_ve_got_your_attention_complexity_theory'
p1227
S'NicolasPerony_2013X'
p1228
sS'jill_farrant_how_we_can_make_crops_survive_without_water'
p1229
S'JillFarrant_2015G'
p1230
sS'susan_blackmore_on_memes_and_temes'
p1231
S'SusanBlackmore_2008'
p1232
sS'navi_radjou_creative_problem_solving_in_the_face_of_extreme_limits'
p1233
S'NaviRadjou_2014G'
p1234
sS'david_carson_on_design'
p1235
S'DavidCarson_2003'
p1236
sS'daniel_libeskind_s_17_words_of_architectural_inspiration'
p1237
S'DanielLibeskind_2009'
p1238
sS'raul_midon_plays_everybody_and_peace_on_earth'
p1239
S'RaulMidon_Everybody_2007'
p1240
sS'susan_savage_rumbaugh_on_apes_that_write'
p1241
S'SusanSavageRumbaugh_2004'
p1242
sS'paul_nicklen_tales_of_ice_bound_wonderlands'
p1243
S'PaulNicklen_2011'
p1244
sS'juan_enriquez_shares_mindboggling_new_science'
p1245
S'JuanEnriquez_2009'
p1246
sS'steven_johnson_tours_the_ghost_map'
p1247
S'StevenJohnson_2006S'
p1248
sS'ivan_coyote_why_we_need_gender_neutral_bathrooms'
p1249
S'IvanCoyote_2015X'
p1250
sS'ben_saunders_skis_to_the_north_pole'
p1251
S'BenSaunders_2005'
p1252
sS'anne_marie_slaughter_can_we_all_have_it_all'
p1253
S'AnneMarieSlaughter_2013G'
p1254
sS'jonathan_foley_the_other_inconvenient_truth'
p1255
S'JonathanFoley_2010X'
p1256
sS'angela_belcher_using_nature_to_grow_batteries'
p1257
S'AngelaBelcher_2011X'
p1258
sS'william_kamkwamba_on_building_a_windmill'
p1259
S'WilliamKamkwamba_2007G'
p1260
sS'thomas_heatherwick'
p1261
S'ThomasHeatherwick_2011'
p1262
sS'thomas_goetz_it_s_time_to_redesign_medical_data'
p1263
S'ThomasGoetz_2010P'
p1264
sS'eythor_bender_demos_human_exoskeletons'
p1265
S'EythorBender_2011'
p1266
sS'marco_tempest_a_magical_tale_with_augmented_reality'
p1267
S'MarcoTempest_2012'
p1268
sS'molly_stevens_a_new_way_to_grow_bone'
p1269
S'MollyStevens_2013G'
p1270
sS'sugata_mitra_shows_how_kids_teach_themselves'
p1271
S'SugataMitra_2007P'
p1272
sS'amy_webb_how_i_hacked_online_dating'
p1273
S'AmyWebb_2013S'
p1274
sS'candy_chang_before_i_die_i_want_to'
p1275
S'CandyChang_2012G'
p1276
sS'adam_foss_a_prosecutor_s_vision_for_a_better_justice_system'
p1277
S'AdamFoss_2016'
p1278
sS'lucien_engelen_crowdsource_your_health'
p1279
S'LucienEngelen_2011X'
p1280
sS'tom_wujec_build_a_tower'
p1281
S'TomWujec_2010U'
p1282
sS'eve_ensler'
p1283
S'EveEnsler_2010W'
p1284
sS'alisa_miller_shares_the_news_about_the_news'
p1285
S'AlisaMiller_2008'
p1286
sS'tierney_thys_swims_with_the_giant_sunfish'
p1287
S'TierneyThys_2003'
p1288
sS'jessica_jackley_poverty_money_and_love'
p1289
S'JessicaJackley_2010G'
p1290
sS'eric_liu_why_ordinary_people_need_to_understand_power'
p1291
S'EricLiu_2013Z'
p1292
sS'david_chalmers_how_do_you_explain_consciousness'
p1293
S'DavidChalmers_2014'
p1294
sS'paul_root_wolpe_it_s_time_to_question_bio_engineering'
p1295
S'PaulWolpe_2010X'
p1296
sS'skylar_tibbits_the_emergence_of_4d_printing'
p1297
S'SkylarTibbits_2013U'
p1298
sS'ivan_oransky_are_we_over_medicalized'
p1299
S'IvanOransky_2012P'
p1300
sS'rives_remixes_ted2006'
p1301
S'Rives_Mockingbird_2006'
p1302
sS'david_perry_on_videogames'
p1303
S'DavidPerry_2006'
p1304
sS'evan_grant_cymatics'
p1305
S'EvanGrant_2009G'
p1306
sS'jared_diamond_on_why_societies_collapse'
p1307
S'JaredDiamond_2003'
p1308
sS'aziz_abu_sarah_for_more_tolerance_we_need_more_tourism'
p1309
S'AzizAbuSarah_2014U'
p1310
sS'garrett_lisi_on_his_theory_of_everything'
p1311
S'GarrettLisi_2008'
p1312
sS'ken_kamler_medical_miracle_on_everest'
p1313
S'KenKamler_2009P'
p1314
sS'shaffi_mather_a_new_way_to_fight_corruption'
p1315
S'ShaffiMather_2009I'
p1316
sS'topher_white_what_can_save_the_rainforest_your_used_cell_phone'
p1317
S'TopherWhite_2014X'
p1318
sS'joe_smith_how_to_use_a_paper_towel'
p1319
S'JoeSmith_2012X'
p1320
sS'shane_koyczan_to_this_day_for_the_bullied_and_beautiful'
p1321
S'ShaneKoyczan_2013'
p1322
sS'juan_enriquez_how_to_think_about_digital_tattoos'
p1323
S'JuanEnriquez_2013U'
p1324
sS'dan_ariely_on_our_buggy_moral_code'
p1325
S'DanAriely_2009'
p1326
sS'rishi_manchanda_what_makes_us_get_sick_look_upstream'
p1327
S'RishiManchanda_2014S'
p1328
sS'vijay_kumar_the_future_of_flying_robots'
p1329
S'VijayKumar_2015X'
p1330
sS'arthur_brooks_a_conservative_s_plea_let_s_work_together'
p1331
S'ArthurBrooks_2016'
p1332
sS'chip_conley_measuring_what_makes_life_worthwhile'
p1333
S'ChipConley_2010'
p1334
sS'toni_griffin_a_new_vision_for_rebuilding_detroit'
p1335
S'ToniGriffin_2013Z'
p1336
sS'ali_carr_chellman_gaming_to_re_engage_boys_in_learning'
p1337
S'AliCarrChellman_2010X'
p1338
sS'helder_guimaraes_a_magical_search_for_a_coincidence'
p1339
S'HelderGuimaraes_2014'
p1340
sS'avi_rubin_all_your_devices_can_be_hacked'
p1341
S'AviRubin_2011X'
p1342
sS'peter_gabriel_fights_injustice_with_video'
p1343
S'PeterGabriel_2006'
p1344
sS'black_my_journey_to_yo_yo_mastery'
p1345
S'BLACK_2013'
p1346
sS'michael_pawlyn_using_nature_s_genius_in_architecture'
p1347
S'MichaelPawlyn_2010S'
p1348
sS'wael_ghonim_let_s_design_social_media_that_drives_real_change'
p1349
S'WaelGhonim_2015G'
p1350
sS'shigeru_ban_emergency_shelters_made_from_paper'
p1351
S'ShigeruBan_2013X'
p1352
sS'steve_ramirez_and_xu_liu_a_mouse_a_laser_beam_a_manipulated_memory'
p1353
S'SteveRamirez_2013X'
p1354
sS'charles_fleischer_insists_all_things_are_moleeds'
p1355
S'CharlesFleischer_2005'
p1356
sS'mary_roach_10_things_you_didn_t_know_about_orgasm'
p1357
S'MaryRoach_2009'
p1358
sS'knut_haanaes_two_reasons_companies_fail_and_how_to_avoid_them'
p1359
S'KnutHaanaes_2015S'
p1360
sS'paul_rothemund_details_dna_folding'
p1361
S'PaulRothemund_2008'
p1362
sS'peter_hirshberg_on_tv_and_the_web'
p1363
S'PeterHirschberg_2007P'
p1364
sS'daffodil_hudson_is_this_the_cure_for_stage_fright'
p1365
S'TEDMusical_2014'
p1366
sS'boyd_varty_what_i_learned_from_nelson_mandela'
p1367
S'BoydVarty_2013W'
p1368
sS'nancy_lublin_the_heartbreaking_text_that_inspired_a_crisis_help_line'
p1369
S'NancyLublin_2015W'
p1370
sS'edith_widder_the_weird_and_wonderful_world_of_bioluminescence'
p1371
S'EdithWidder_2011'
p1372
sS'norman_foster_s_green_agenda'
p1373
S'NormanFoster_2007P'
p1374
sS'vik_muniz_makes_art_with_wire_sugar'
p1375
S'VikMuniz_2003'
p1376
sS'guillaume_nery_the_exhilarating_peace_of_freediving'
p1377
S'GuillaumeNery_2013X'
p1378
sS'john_underkoffler_drive_3d_data_with_a_gesture'
p1379
S'JohnUnderkoffler_2010'
p1380
sS'steve_silberman_the_forgotten_history_of_autism'
p1381
S'SteveSilberman_2015'
p1382
sS'miru_kim_s_underground_art'
p1383
S'MiruKim_2008P'
p1384
sS'josh_silver_demos_adjustable_liquid_filled_eyeglasses'
p1385
S'JoshSilver_2009G'
p1386
sS'hanna_rosin_new_data_on_the_rise_of_women'
p1387
S'HannaRosin_2010W'
p1388
sS'parag_khanna_maps_the_future_of_countries'
p1389
S'ParagKhanna_2009G'
p1390
sS'frederick_balagadde_bio_lab_on_a_microchip'
p1391
S'FrederickBalagadde_2010U'
p1392
sS'mark_pagel_how_language_transformed_humanity'
p1393
S'MarkPagel_2011G'
p1394
sS'dan_ariely_beware_conflicts_of_interest'
p1395
S'DanAriely_2011U'
p1396
sS'maz_jobrani_a_saudi_an_indian_and_an_iranian_walk_into_a_qatari_bar'
p1397
S'MazJobrani_2012S'
p1398
sS'donald_hoffman_do_we_see_reality_as_it_is'
p1399
S'DonaldHoffman_2015'
p1400
sS'matt_cutts_try_something_new_for_30_days'
p1401
S'MattCutts_2011U'
p1402
sS'yoruba_richen_what_the_gay_rights_movement_learned_from_the_civil_rights_movement'
p1403
S'YorubaRichen_2014'
p1404
sS'mitchell_joachim_don_t_build_your_home_grow_it'
p1405
S'MitchellJoachim_2010'
p1406
sS'tony_wyss_coray_how_young_blood_might_help_reverse_aging_yes_really'
p1407
S'TonyWyssCoray_2015G'
p1408
sS'pattie_maes_demos_the_sixth_sense'
p1409
S'PattieMaes_2009'
p1410
sS'joey_alexander_an_11_year_old_prodigy_performs_old_school_jazz'
p1411
S'JoeyAlexander_2015'
p1412
sS'reshma_saujani_teach_girls_bravery_not_perfection'
p1413
S'ReshmaSaujani_2016'
p1414
sS'kailash_satyarthi_how_to_make_peace_get_angry'
p1415
S'KailashSatyarthi_2015'
p1416
sS'deb_roy_the_birth_of_a_word'
p1417
S'DebRoy_2011'
p1418
sS'bastian_schaefer_a_3d_printed_jumbo_jet'
p1419
S'BastianSchaefer_2013G'
p1420
sS'thomas_p_campbell_weaving_narratives_in_museum_galleries'
p1421
S'ThomasCampbell_2012'
p1422
sS'julie_burstein_4_lessons_in_creativity'
p1423
S'JulieBurstein_2012'
p1424
sS'ory_okolloh_on_becoming_an_activist'
p1425
S'OryOkolloh_2007G'
p1426
sS'jamila_lyiscott_3_ways_to_speak_english'
p1427
S'JamilaLyiscott_2014S'
p1428
sS'erik_hersman_on_reporting_crisis_via_texting'
p1429
S'ErikHersman_2009U'
p1430
sS'benjamin_zander_on_music_and_passion'
p1431
S'BenjaminZander_2008'
p1432
sS'frank_gehry_asks_then_what'
p1433
S'FrankGehry_2002'
p1434
sS'david_s_rose_on_pitching_to_vcs'
p1435
S'DavidSRose_2007U'
p1436
sS'alejandro_aravena_my_architectural_philosophy_bring_the_community_into_the_process'
p1437
S'AlejandroAravena_2014G'
p1438
sS'joe_gebbia_how_airbnb_designs_for_trust'
p1439
S'JoeGebbia_2016'
p1440
sS'charles_robertson_africa_s_next_boom'
p1441
S'CharlesRobertson_2013G'
p1442
sS'bart_knols_cheese_dogs_and_pills_to_end_malaria'
p1443
S'BartKnols_2012X'
p1444
sS'kevin_surace_fixing_drywall_to_heal_the_planet'
p1445
S'KevinSurace_2009'
p1446
sS'ben_ambridge_10_myths_about_psychology_debunked'
p1447
S'BenAmbridge_2014X'
p1448
sS'massimo_banzi_how_arduino_is_open_sourcing_imagination'
p1449
S'MassimoBanzi_2012G'
p1450
sS'blaise_aguera_y_arcas_demos_photosynth'
p1451
S'BlaiseAguerayArcas_2007'
p1452
sS'gary_haugen_the_hidden_reason_for_poverty_the_world_needs_to_address_now'
p1453
S'GaryHaugen_2015'
p1454
sS'joe_derisi_hunts_the_next_killer_virus'
p1455
S'JoeDeRisi_2006'
p1456
sS'honor_harger_a_history_of_the_universe_in_sound'
p1457
S'HonorHarger_2011S'
p1458
sS'jonathan_haidt_on_the_moral_mind'
p1459
S'JonathanHaidt_2008'
p1460
sS'the_interspecies_internet_an_idea_in_progress'
p1461
S'PeterGabriel_Panel_2013'
p1462
sS'alan_russell_on_regenerating_our_bodies'
p1463
S'AlanRussell_2006'
p1464
sS'martin_jacques_understanding_the_rise_of_china'
p1465
S'MartinJacques_2010S'
p1466
sS'arianna_huffington_how_to_succeed_get_more_sleep'
p1467
S'AriannaHuffington_2010W'
p1468
sS'boaz_almog_levitates_a_superconductor'
p1469
S'BoazAlmog_2012G'
p1470
sS'shereen_el_feki_pop_culture_in_the_arab_world'
p1471
S'ShereenElFeki_2009G'
p1472
sS'marcin_jakubowski'
p1473
S'MarcinJakubowski_2011U'
p1474
sS'rory_stewart_how_to_rebuild_democracy'
p1475
S'RoryStewart_2012X'
p1476
sS'gregory_heyworth_how_i_m_discovering_the_secrets_of_ancient_texts'
p1477
S'GregoryHeyworth_2015X'
p1478
sS'ruth_chang_how_to_make_hard_choices'
p1479
S'RuthChang_2014S'
p1480
sS'harry_cliff_have_we_reached_the_end_of_physics'
p1481
S'HarryCliff_2015G'
p1482
sS'jennifer_pahlka_coding_a_better_government'
p1483
S'JenniferPahlka_2012'
p1484
sS'dan_ariely_what_makes_us_feel_good_about_our_work'
p1485
S'DanAriely_2012X'
p1486
sS'martin_seligman_on_the_state_of_psychology'
p1487
S'MartinSeligman_2004'
p1488
sS'robin_chase_on_zipcar_and_her_next_big_idea'
p1489
S'RobinChase_2007'
p1490
sS'geoff_mulgan_post_crash_investing_in_a_better_world_1'
p1491
S'GeoffMulgan_2009G'
p1492
sS'brian_goldman_doctors_make_mistakes_can_we_talk_about_that'
p1493
S'BrianGoldman_2011X'
p1494
sS'hans_rosling_shows_the_best_stats_you_ve_ever_seen'
p1495
S'HansRosling_2006'
p1496
sS'rick_smolan_tells_the_story_of_a_girl'
p1497
S'RickSmolan_2007P'
p1498
sS'aubrey_de_grey_says_we_can_avoid_aging'
p1499
S'AubreydeGrey_2005G'
p1500
sS'randall_munroe_comics_that_ask_what_if'
p1501
S'RandallMunroe_2014'
p1502
sS'christina_warinner_tracking_ancient_diseases_using_plaque'
p1503
S'ChristinaWarinner_2012U'
p1504
sS'lucy_mcrae_how_can_technology_transform_the_human_body'
p1505
S'LucyMcRae_2012'
p1506
sS'wadah_khanfar_a_historic_moment_in_the_arab_world'
p1507
S'WadahKhanfar_2011'
p1508
sS'alix_generous_how_i_learned_to_communicate_my_inner_life_with_asperger_s'
p1509
S'AlixGenerous_2015W'
p1510
sS'aditi_shankardass_a_second_opinion_on_learning_disorders'
p1511
S'AditiShankardass_2009I'
p1512
sS'nathan_myhrvold_cut_your_food_in_half'
p1513
S'NathanMyhrvold_2011U'
p1514
sS'robert_ballard_on_exploring_the_oceans'
p1515
S'RobertBallard_2008'
p1516
sS'russell_foster_why_do_we_sleep'
p1517
S'RussellFoster_2013G'
p1518
sS'rob_hopkins_transition_to_a_world_without_oil'
p1519
S'RobHopkins_2009G'
p1520
sS'marvin_minsky_on_health_and_the_human_mind'
p1521
S'MarvinMinsky_2003'
p1522
sS'yoav_medan_ultrasound_surgery_healing_without_cuts'
p1523
S'YoavMedan_2011P'
p1524
sS'vincent_cochetel_i_was_held_hostage_for_317_days_here_s_what_i_thought_about'
p1525
S'VincentCochetel_2014X'
p1526
sS'kaki_king_rocks_out_to_pink_noise'
p1527
S'KakiKing_2008'
p1528
sS'alex_laskey_how_behavioral_science_can_lower_your_energy_bill'
p1529
S'AlexLaskey_2013'
p1530
sS'kathryn_schulz_don_t_regret_regret'
p1531
S'KathrynSchulz_2011S'
p1532
sS'hetain_patel_who_am_i_think_again'
p1533
S'HetainPatel_2013G'
p1534
sS'naomi_oreskes_why_we_should_believe_in_science'
p1535
S'NaomiOreskes_2014S'
p1536
sS'dan_pacholke_how_prisons_can_help_inmates_live_meaningful_lives'
p1537
S'DanPacholke_2014X'
p1538
sS'andrew_connolly_what_s_the_next_window_into_our_universe'
p1539
S'AndrewConnolly_2014'
p1540
sS'dan_dennett_on_our_consciousness'
p1541
S'DanDennett_2003'
p1542
sS'dalia_mogahed_what_do_you_think_when_you_look_at_me'
p1543
S'DaliaMogahed_2016'
p1544
sS'james_flynn_why_our_iq_levels_are_higher_than_our_grandparents'
p1545
S'JamesFlynn_2013'
p1546
sS'dave_debronkart_meet_e_patient_dave'
p1547
S'DavedeBronkart_2010X'
p1548
sS'itay_talgam_lead_like_the_great_conductors'
p1549
S'ItayTalgam_2009G'
p1550
sS'stuart_brown_says_play_is_more_than_fun_it_s_vital'
p1551
S'StuartBrown_2008P'
p1552
sS'mikko_hypponen_fighting_viruses_defending_the_net'
p1553
S'MikkoHypponen_2011G'
p1554
sS'gail_reed_where_to_train_the_world_s_doctors_cuba'
p1555
S'GailReed_2014P'
p1556
sS'robert_wright_the_evolution_of_compassion'
p1557
S'RobertWright_2009P'
p1558
sS'jonathan_harris_collects_stories'
p1559
S'JonathanHarris_2007P'
p1560
sS'david_pizarro_the_strange_politics_of_disgust'
p1561
S'DavidPizarro_2012X'
p1562
sS'leah_buechley_how_to_sketch_with_electronics'
p1563
S'LeahBuechley_2011Y'
p1564
sS'michael_shermer_on_believing_strange_things'
p1565
S'MichaelShermer_2006'
p1566
sS'christien_meindertsma_on_pig_05049'
p1567
S'ChristienMeindertsma_2010G'
p1568
sS'stefan_wolff_the_path_to_ending_ethnic_conflicts'
p1569
S'StefanWolff_2010G'
p1570
sS'stella_young_i_m_not_your_inspiration_thank_you_very_much'
p1571
S'StellaYoung_2014X'
p1572
sS'natalie_merchant_sings_old_poems_to_life'
p1573
S'NatalieMerchant_2010'
p1574
sS'tod_machover_and_dan_ellsey_play_new_music'
p1575
S'TodMachover_2008'
p1576
sS'daniel_kish_how_i_use_sonar_to_navigate_the_world'
p1577
S'DanielKish_2015'
p1578
sS'james_burchfield_plays_invisible_turntables'
p1579
S'JamesBurchfield_2003'
p1580
sS'ivan_krastev_can_democracy_exist_without_trust'
p1581
S'IvanKrastev_2012G'
p1582
sS'daniel_kraft_medicine_s_future'
p1583
S'DanielKraft_2011X'
p1584
sS'misha_glenny_hire_the_hackers'
p1585
S'MishaGlenny_2011G'
p1586
sS'golan_levin_on_software_as_art'
p1587
S'GolanLevin_2004'
p1588
sS'carol_dweck_the_power_of_believing_that_you_can_improve'
p1589
S'CarolDweck_2014X'
p1590
sS'dan_meyer_math_curriculum_makeover'
p1591
S'DanMeyer_2010X'
p1592
sS'lemn_sissay_a_child_of_the_state'
p1593
S'LemnSissay_2012X'
p1594
sS'jason_pontin_can_technology_solve_our_big_problems'
p1595
S'JasonPontin_2013U'
p1596
sS'dianna_cohen_tough_truths_about_plastic_pollution'
p1597
S'DiannaCohen_2010Z'
p1598
sS'aakash_odedra_a_dance_in_a_hurricane_of_paper_wind_and_light'
p1599
S'AakashOdedra_2014G'
p1600
sS'eric_berlow_how_complexity_leads_to_simplicity'
p1601
S'EricBerlow_2010G'
p1602
sS'phil_borges_on_endangered_cultures'
p1603
S'PhilBorges_2006'
p1604
sS'alexander_betts_our_refugee_system_is_failing_here_s_how_we_can_fix_it'
p1605
S'AlexanderBetts_2016'
p1606
sS'nate_silver_on_race_and_politics'
p1607
S'NateSilver_2009A'
p1608
sS'chade_meng_tan_everyday_compassion_at_google'
p1609
S'ChadeMengTan_2010Z'
p1610
sS'mark_kendall_demo_a_needle_free_vaccine_patch_that_s_safer_and_way_cheaper'
p1611
S'MarkKendall_2013G'
p1612
sS'nick_bostrom_what_happens_when_our_computers_get_smarter_than_we_are'
p1613
S'NickBostrom_2015'
p1614
sS'ben_cameron_tedxyyc'
p1615
S'BenCameron_2010X'
p1616
sS'jane_mcgonigal_massively_multi_player_thumb_wrestling'
p1617
S'JaneMcGonigal_2013G'
p1618
sS'nigel_marsh_how_to_make_work_life_balance_work'
p1619
S'NigelMarsh_2010X'
p1620
sS'nicholas_negroponte_takes_olpc_to_colombia'
p1621
S'NicholasNegroponte_2008'
p1622
sS'charles_leadbeater_on_innovation'
p1623
S'CharlesLeadbeater_2005G'
p1624
sS'renata_salecl_our_unhealthy_obsession_with_choice'
p1625
S'RenataSalecl_2013G'
p1626
sS'john_la_grou_plugs_smart_power_outlets_1'
p1627
S'JohnLaGrou_2009'
p1628
sS'jaap_de_roode_how_butterflies_self_medicate'
p1629
S'JaapDeRoode_2014Y'
p1630
sS'alwar_balasubramaniam_sculpture_of_substance_and_absence'
p1631
S'AlwarBalasubramaniam_2009I'
p1632
sS'richard_seymour_how_beauty_feels'
p1633
S'RichardSeymour_2011S'
p1634
sS'sean_follmer_shape_shifting_tech_will_change_work_as_we_know_it'
p1635
S'SeanFollmer_2015X'
p1636
sS'philip_evans_how_data_will_transform_business'
p1637
S'PhilipEvans_2013S'
p1638
sS'eve_ensler_on_security'
p1639
S'EveEnsler_2005G'
p1640
sS'sally_kohn_let_s_try_emotional_correctness'
p1641
S'SallyKohn_2013S'
p1642
sS'kitra_cahana_my_father_locked_in_his_body_but_soaring_free'
p1643
S'KitraCahana_2014P'
p1644
sS'don_tapscott_four_principles_for_the_open_world_1'
p1645
S'DonTapscott_2012G'
p1646
sS'richard_pyle_dives_the_twilight_zone'
p1647
S'RichardPyle_2004'
p1648
sS'nilofer_merchant_got_a_meeting_take_a_walk'
p1649
S'NiloferMerchant_2013'
p1650
sS'casey_gerald_the_gospel_of_doubt'
p1651
S'CaseyGerald_2016'
p1652
sS'ian_goldin_navigating_our_global_future'
p1653
S'IanGoldin_2009G'
p1654
sS'jackson_katz_violence_against_women_it_s_a_men_s_issue'
p1655
S'JacksonKatz_2012X'
p1656
sS'travis_kalanick_uber_s_plan_to_get_more_people_into_fewer_cars'
p1657
S'TravisKalanick_2016'
p1658
sS'daphne_koller_what_we_re_learning_from_online_education'
p1659
S'DaphneKoller_2012G'
p1660
sS'julian_treasure_how_to_speak_so_that_people_want_to_listen'
p1661
S'JulianTreasure_2013G'
p1662
sS'juan_enriquez_on_genomics_and_our_future'
p1663
S'JuanEnriquez_2003'
p1664
sS'james_veitch_this_is_what_happens_when_you_reply_to_spam_email'
p1665
S'JamesVeitch_2015G'
p1666
sS'e_o_wilson_on_saving_life_on_earth'
p1667
S'EOWilson_2007'
p1668
sS'bart_weetjens_how_i_taught_rats_to_sniff_out_land_mines'
p1669
S'BartWeetjens_2010X'
p1670
sS'philip_zimbardo_on_the_psychology_of_evil'
p1671
S'PhilZimbardo_2008'
p1672
sS'patricia_burchat_leads_a_search_for_dark_energy'
p1673
S'PatriciaBurchat_2008'
p1674
sS'onyx_ashanti_this_is_beatjazz'
p1675
S'OnyxAshanti_2011S'
p1676
sS'garth_lenz_images_of_beauty_and_devastation'
p1677
S'GarthLenz_2011X'
p1678
sS'megan_kamerick_women_should_represent_women_in_media'
p1679
S'MeganKamerick_2011X'
p1680
sS'sue_austin_deep_sea_diving_in_a_wheelchair'
p1681
S'SueAustin_2012X'
p1682
sS'usman_riaz_and_preston_reed_a_young_guitarist_meets_his_hero'
p1683
S'UsmanRiaz_2012G'
p1684
sS'sheila_patek_clocks_the_fastest_animals'
p1685
S'SheilaPatek_2004'
p1686
sS'michael_archer_how_we_ll_resurrect_the_gastric_brooding_frog_the_tasmanian_tiger'
p1687
S'MichaelArcher_2013X'
p1688
sS'william_ury'
p1689
S'WilliamUry_2010X'
p1690
sS'joann_kuchera_morin_tours_the_allosphere'
p1691
S'JoAnnKucheraMorin_2009'
p1692
sS'kathryn_schulz_on_being_wrong'
p1693
S'KathrynSchulz_2011'
p1694
sS'ji_hae_park_the_violin_and_my_dark_night_of_the_soul'
p1695
S'JiHaePark_2013'
p1696
sS'jane_goodall_at_tedglobal_07'
p1697
S'JaneGoodall_2007G'
p1698
sS'diana_nyad_never_ever_give_up'
p1699
S'DianaNyad_2013W'
p1700
sS'mike_rowe_celebrates_dirty_jobs'
p1701
S'MikeRowe_2008P'
p1702
sS'jean_baptiste_michel_the_mathematics_of_history'
p1703
S'JeanBaptisteMichel_2012'
p1704
sS'morley_sings_women_of_hope'
p1705
S'Morley_2011X'
p1706
sS'christine_sun_kim_the_enchanting_music_of_sign_language'
p1707
S'ChristineSunKim_2015F'
p1708
sS'george_monbiot_for_more_wonder_rewild_the_world'
p1709
S'GeorgeMonbiot_2013G'
p1710
sS'nikolai_begg_a_tool_to_fix_one_of_the_most_dangerous_moments_in_surgery'
p1711
S'NikolaiBegg_2013X'
p1712
sS'alex_steffen_sees_a_sustainable_future'
p1713
S'AlexSteffen_2005G'
p1714
sS'yann_arthus_bertrand_captures_fragile_earth_in_wide_angle'
p1715
S'YannArthusBertrand_2009'
p1716
sS'jay_walker_on_the_world_s_english_mania'
p1717
S'JayWalker_2009'
p1718
sS'mac_barnett_why_a_good_book_is_a_secret_door'
p1719
S'MacBarnett_2014X'
p1720
sS'suzana_herculano_houzel_what_is_so_special_about_the_human_brain'
p1721
S'SuzanaHerculanoHouzel_2013G'
p1722
sS'sheikha_al_mayassa_globalizing_the_local_localizing_the_global'
p1723
S'SheikhaAlMayassa_2010W'
p1724
sS'oscar_schwartz_can_a_computer_write_poetry'
p1725
S'OscarSchwartz_2015X'
p1726
sS'james_balog_time_lapse_proof_of_extreme_ice_loss'
p1727
S'JamesBalog_2009G'
p1728
sS'shilo_shiv_suleman_using_tech_to_enable_dreaming'
p1729
S'ShiloSuleman_2011P'
p1730
sS'rory_sutherland_life_lessons_from_an_ad_man'
p1731
S'RorySutherland_2009G'
p1732
sS'nathan_myhrvold_on_archeology_animal_photography_bbq'
p1733
S'NathanMyhrvold_2007'
p1734
sS'eric_giler_demos_wireless_electricity'
p1735
S'EricGiler_2009G'
p1736
sS'roman_mars_why_city_flags_may_be_the_worst_designed_thing_you_ve_never_noticed'
p1737
S'RomanMars_2015'
p1738
sS'colin_grant_the_son_of_a_difficult_father'
p1739
S'ColinGrant_2012X'
p1740
sS'tim_berners_lee_the_year_open_data_went_worldwide'
p1741
S'TimBernersLee_2010U'
p1742
sS'lucianne_walkowicz_finding_planets_around_other_stars'
p1743
S'LucianneWalkowicz_2011G'
p1744
sS'stefano_mancuso_the_roots_of_plant_intelligence'
p1745
S'StefanoMancuso_2010G'
p1746
sS'beardyman_the_polyphonic_me'
p1747
S'Beardyman_2013'
p1748
sS'andrew_solomon_love_no_matter_what'
p1749
S'AndrewSolomon_2013P'
p1750
sS'latoya_ruby_frazier_a_visual_history_of_inequality_in_industrial_america'
p1751
S'LaToyaRubyFrazier_2015U'
p1752
sS'anand_giridharadas_a_tale_of_two_americas_and_the_mini_mart_where_they_collided'
p1753
S'AnandGiridharadas_2015'
p1754
sS'laura_carstensen_older_people_are_happier'
p1755
S'LauraCarstensen_2011X'
p1756
sS'ruby_wax_what_s_so_funny_about_mental_illness'
p1757
S'RubyWax_2012G'
p1758
sS'malte_spitz_your_phone_company_is_watching'
p1759
S'MalteSpitz_2012G'
p1760
sS'ben_goldacre_battling_bad_science'
p1761
S'BenGoldacre_2011G'
p1762
sS'tal_danino_we_can_use_bacteria_to_detect_cancer_and_maybe_treat_it'
p1763
S'TalDanino_2015U'
p1764
sS'nina_jablonski_breaks_the_illusion_of_skin_color'
p1765
S'NinaJablonski_2009'
p1766
sS'jennifer_8_lee_looks_for_general_tso'
p1767
S'Jenny8Lee_2008P'
p1768
sS'mckenna_pope_want_to_be_an_activist_start_with_your_toys'
p1769
S'McKennaPope_2013Y'
p1770
sS'defend_our_freedom_to_share_or_why_sopa_is_a_bad_idea'
p1771
S'ClayShirky_2012S'
p1772
sS'jane_chen_a_warm_embrace_that_saves_lives'
p1773
S'JaneChen_2009I'
p1774
sS'debate_does_the_world_need_nuclear_energy'
p1775
S'NuclearDebate_2010'
p1776
sS'tom_rielly_delivers_a_comic_send_up_of_ted2006'
p1777
S'TomRielly_2006'
p1778
sS'thandie_newton_embracing_otherness_embracing_myself'
p1779
S'ThandieNewton_2011G'
p1780
sS'mallika_sarabhai'
p1781
S'MallikaSarabhai_2009I'
p1782
sS'stefana_broadbent_how_the_internet_enables_intimacy'
p1783
S'StefanaBroadbent_2009G'
p1784
sS'roger_stein_a_bold_new_way_to_fund_drug_research'
p1785
S'RogerStein_2013S'
p1786
sS'tyrone_hayes_penelope_jagessar_chaffer_the_toxic_baby'
p1787
S'TyroneHayes_2010W'
p1788
sS'sebastian_wernicke_how_to_use_data_to_make_a_hit_tv_show'
p1789
S'SebastianWernicke_2015X'
p1790
sS'jeffrey_brown_how_we_cut_youth_violence_in_boston_by_79_percent'
p1791
S'JeffreyBrown_2015'
p1792
sS'rives_tells_a_story_of_mixed_emoticons'
p1793
S'Rives_TTYL_2008'
p1794
sS'auret_van_heerden_making_global_labor_fair'
p1795
S'AuretvanHeerden_2010G'
p1796
sS'munir_virani_why_i_love_vultures'
p1797
S'MunirVirani_2012S'
p1798
sS'alice_goffman_college_or_prison_two_destinies_one_blatant_injustice'
p1799
S'AliceGoffman_2015'
p1800
sS'sarah_jayne_blakemore_the_mysterious_workings_of_the_adolescent_brain'
p1801
S'SarahJayneBlakemore_2012G'
p1802
sS'jonathan_zittrain_the_web_is_a_random_act_of_kindness'
p1803
S'JonathanZittrain_2009G'
p1804
sS'rose_goslinga_crop_insurance_an_idea_worth_seeding'
p1805
S'RoseGoslinga_2014S'
p1806
sS'aimee_mullins_prosthetic_aesthetics'
p1807
S'AimeeMullins_2009U'
p1808
sS'birke_baehr_what_s_wrong_with_our_food_system'
p1809
S'BirkeBaehr_2010X'
p1810
sS'alan_kay_shares_a_powerful_idea_about_ideas'
p1811
S'AlanKay_2007'
p1812
sS'evgeny_morozov_is_the_internet_what_orwell_feared'
p1813
S'EvgenyMorozov_2009G'
p1814
sS'yochai_benkler_on_the_new_open_source_economics'
p1815
S'YochaiBenkler_2005G'
p1816
sS'manal_al_sharif_a_saudi_woman_who_dared_to_drive'
p1817
S'ManalAlSharif_2013G'
p1818
sS'sheryl_sandberg_so_we_leaned_in_now_what'
p1819
S'SherylSandberg_2013W'
p1820
sS'ray_kurzweil_announces_singularity_university'
p1821
S'RayKurzweil_2009U'
p1822
sS'kirby_ferguson_embrace_the_remix'
p1823
S'KirbyFerguson_2012G'
p1824
sS'al_vernacchio_sex_needs_a_new_metaphor_here_s_one'
p1825
S'AlVernacchio_2012'
p1826
sS'daniel_kraft_invents_a_better_way_to_harvest_bone_marrow'
p1827
S'DanielKraft_2009'
p1828
sS'vikram_patel_mental_health_for_all_by_involving_all'
p1829
S'VikramPatel_2012G'
p1830
sS'daniel_pauly_the_ocean_s_shifting_baseline'
p1831
S'DanielPauly_2010Z'
p1832
sS'jennifer_golbeck_the_curly_fry_conundrum_why_social_media_likes_say_more_than_you_might_think'
p1833
S'JenniferGolbeck_2013X'
p1834
sS'jack_andraka_a_promising_test_for_pancreatic_cancer_from_a_teenager'
p1835
S'JackAndraka_2013'
p1836
sS'jacqueline_novogratz_a_third_way_to_think_about_aid'
p1837
S'JacquelineNovogratz_2009S'
p1838
sS'nick_veasey_exposing_the_invisible_1'
p1839
S'NickVeasey_2009G'
p1840
sS'john_green_the_nerd_s_guide_to_learning_everything_online'
p1841
S'JohnGreen_2012X'
p1842
sS'jessica_green_good_germs_make_healthy_buildings'
p1843
S'JessicaGreen_2013U'
p1844
sS'thom_mayne_on_architecture_as_connection'
p1845
S'ThomMayne_2005'
p1846
sS'daniel_h_cohen_for_argument_s_sake'
p1847
S'DanCohen_2013X'
p1848
sS'nicholas_christakis_the_hidden_influence_of_social_networks'
p1849
S'NicholasChristakis_2010'
p1850
sS'alice_dreger_is_anatomy_destiny'
p1851
S'AliceDreger_2011X'
p1852
sS'jane_mcgonigal_the_game_that_can_give_you_10_extra_years_of_life'
p1853
S'JaneMcGonigal_2012G'
p1854
sS'andrea_ghez_the_hunt_for_a_supermassive_black_hole'
p1855
S'AndreaGhez_2009G'
p1856
sS'maryn_mckenna_what_do_we_do_when_antibiotics_don_t_work_any_more'
p1857
S'MarynMcKenna_2015'
p1858
sS'janine_benyus_shares_nature_s_designs'
p1859
S'JanineBenyus_2005'
p1860
sS'john_kasaona_from_poachers_to_caretakers'
p1861
S'JohnKasaona_2010'
p1862
sS'skylar_tibbits_can_we_make_things_that_make_themselves'
p1863
S'SkylarTibbits_2011U'
p1864
sS'martine_rothblatt_my_daughter_my_wife_our_robot_and_the_quest_for_immortality'
p1865
S'MartineRothblatt_2015'
p1866
sS'zimchallenge'
p1867
S'PhilipZimbardo_2011'
p1868
sS'greg_gage_how_to_control_someone_else_s_arm_with_your_brain'
p1869
S'GregGage_2015U'
p1870
sS'jonathan_drori_every_pollen_grain_has_a_story'
p1871
S'JonathanDrori_2010U'
p1872
sS'esther_duflo_social_experiments_to_fight_poverty'
p1873
S'EstherDuflo_2010'
p1874
sS'brenda_laurel_on_making_games_for_girls'
p1875
S'BrendaLaurel_1998'
p1876
sS'lies_damned_lies_and_statistics_about_tedtalks'
p1877
S'SebastianWernicke_2010A'
p1878
sS'robin_nagle_what_i_discovered_in_new_york_city_trash'
p1879
S'RobinNagle_2013Z'
p1880
sS'john_searle_our_shared_condition_consciousness'
p1881
S'JohnSearle_2013'
p1882
sS'david_holt_plays_mountain_music'
p1883
S'DavidHolt_2004'
p1884
sS'amy_cuddy_your_body_language_shapes_who_you_are'
p1885
S'AmyCuddy_2012G'
p1886
sS'meera_vijayann_find_your_voice_against_gender_violence'
p1887
S'MeeraVijayann_2014X'
p1888
sS'michael_shermer_the_pattern_behind_self_deception'
p1889
S'MichaelShermer_2010'
p1890
sS'don_levy_a_cinematic_journey_through_visual_effects'
p1891
S'DonLevy_2012U'
p1892
sS'rory_bremner_s_one_man_world_summit'
p1893
S'RoryBremner_2009G'
p1894
sS'david_byrne_how_architecture_helped_music_evolve'
p1895
S'DavidByrne_2010'
p1896
sS'catherine_bracy_why_good_hackers_make_good_citizens'
p1897
S'CatherineBracy_2013Z'
p1898
sS'rory_sutherland_perspective_is_everything'
p1899
S'RorySutherland_2011X'
p1900
sS'enrique_penalosa_why_buses_represent_democracy_in_action'
p1901
S'EnriquePenelosa_2013Z'
p1902
sS'kevin_kelly_on_the_next_5_000_days_of_the_web'
p1903
S'KevinKelly_2007P'
p1904
sS'elizabeth_lev_the_unheard_story_of_the_sistine_chapel'
p1905
S'ElizabethLev_2015G'
p1906
sS'brian_cox_why_we_need_the_explorers'
p1907
S'BrianCox_2010S'
p1908
sS'haas_hahn_how_painting_can_transform_communities'
p1909
S'HaasandHahn_2014G'
p1910
sS'joe_desimone_what_if_3d_printing_was_25x_faster'
p1911
S'JosephDeSimone_2015'
p1912
sS'swami_dayananda_saraswati'
p1913
S'SriSwamiDayanandaSaraswati_2009P'
p1914
sS'rupal_patel_synthetic_voices_as_unique_as_fingerprints'
p1915
S'RupalPatel_2013W'
p1916
sS'james_surowiecki_on_the_turning_point_for_social_media'
p1917
S'JamesSurowiecki_2005'
p1918
sS'billy_collins_two_poems_about_what_dogs_think_probably'
p1919
S'BillyCollins_2014'
p1920
sS'kate_hartman_the_art_of_wearable_communication'
p1921
S'KateHartman_2011'
p1922
sS'david_gallo_on_life_in_the_deep_oceans'
p1923
S'DavidGallo_1998'
p1924
sS'tom_honey_on_god_and_the_tsunami'
p1925
S'TomHoney_2005'
p1926
sS'john_legend_true_colors'
p1927
S'JohnLegend_2013S'
p1928
sS'ellen_t_hoen_pool_medical_patents_save_lives'
p1929
S'EllenTHoen_2012X'
p1930
sS'sophal_ear_escaping_the_khmer_rouge'
p1931
S'SophalEar_2009U'
p1932
sS'carolyn_steel_how_food_shapes_our_cities'
p1933
S'CarolynSteel_2009G'
p1934
sS'emma_teeling_the_secret_of_the_bat_genome'
p1935
S'EmmaTeeling_2012X'
p1936
sS'rob_forbes_on_ways_of_seeing'
p1937
S'RobForbes_2006'
p1938
sS'eduardo_saenz_de_cabezon_math_is_forever'
p1939
S'EduardoSaenzdeCabezon_2014X'
p1940
sS'carl_honore_praises_slowness'
p1941
S'CarlHonore_2005G'
p1942
sS'ameenah_gurib_fakim_humble_plants_that_hide_surprising_secrets'
p1943
S'AmeenahGuribFakim_2014G'
p1944
sS'tim_ferriss_smash_fear_learn_anything'
p1945
S'TimFerriss_2008P'
p1946
sS'tom_wujec_on_3_ways_the_brain_creates_meaning'
p1947
S'TomWujec_2009U'
p1948
sS'mikko_hypponen_how_the_nsa_betrayed_the_world_s_trust_time_to_act'
p1949
S'MikkoHypponen_2013X'
p1950
sS'leslie_morgan_steiner_why_domestic_violence_victims_don_t_leave'
p1951
S'LeslieMorganSteiner_2012X'
p1952
sS'el_seed_street_art_with_a_message_of_hope_and_peace'
p1953
S'eLSeed_2015U'
p1954
sS'guy_winch_the_case_for_emotional_hygiene'
p1955
S'GuyWinch_2014X'
p1956
sS'the_jill_and_julia_show'
p1957
S'JillSobuleandJuliaSweeney_TheJillandJuliaShow_2007'
p1958
sS'romulus_whitaker_the_real_danger_lurking_in_the_water'
p1959
S'RomulusWhitaker_2009I'
p1960
sS'rachel_botsman_the_case_for_collaborative_consumption'
p1961
S'RachelBotsman_2010X'
p1962
sS'ken_goldberg_4_lessons_from_robots_about_being_human'
p1963
S'KenGoldberg_2012X'
p1964
sS'jonathan_harris_tells_the_web_s_secret_stories'
p1965
S'JonathanHarris_2007'
p1966
sS'paul_bloom_can_prejudice_ever_be_a_good_thing'
p1967
S'PaulBloom_2014S'
p1968
sS'emily_levine_s_theory_of_everything'
p1969
S'EmilyLevine_2002'
p1970
sS'hugh_herr_the_new_bionics_that_let_us_run_climb_and_dance'
p1971
S'HughHerr_2014'
p1972
sS'andreas_ekstrom_the_moral_bias_behind_your_search_results'
p1973
S'AndreasEkstrom_2015X'
p1974
sS'yves_morieux_how_too_many_rules_at_work_keep_you_from_getting_things_done'
p1975
S'YvesMorieux_2015S'
p1976
sS'paula_scher_gets_serious'
p1977
S'PaulaScher_2008P'
p1978
sS'ramesh_raskar_a_camera_that_takes_one_trillion_frames_per_second'
p1979
S'RameshRaskar_2012G'
p1980
sS'rajesh_rao_computing_a_rosetta_stone_for_the_indus_script'
p1981
S'RajeshRao_2011'
p1982
sS'eman_mohammed_the_courage_to_tell_a_hidden_story'
p1983
S'EmanMohammed_2014U'
p1984
sS'nellie_mckay_sings_clonie_1'
p1985
S'NellieMcKay_Clonie_2008'
p1986
sS'marcus_byrne_the_dance_of_the_dung_beetle'
p1987
S'MarcusByrne_2012X'
p1988
sS'robert_wright_on_optimism'
p1989
S'RobertWright_2006'
p1990
sS'robert_full_the_secrets_of_nature_s_grossest_creatures_channeled_into_robots'
p1991
S'RobertFull_2014U'
p1992
sS'rita_pierson_every_kid_needs_a_champion'
p1993
S'RitaPierson_2013S'
p1994
sS'lz_granderson_the_myth_of_the_gay_agenda'
p1995
S'LZGranderson_2012X'
p1996
sS'karen_bass_unseen_footage_untamed_nature'
p1997
S'KarenBass_2012'
p1998
sS'ryan_holladay_to_hear_this_music_you_have_to_be_there_literally'
p1999
S'RyanHolladay_2013S'
p2000
sS'neil_pasricha_the_3_a_s_of_awesome'
p2001
S'NeilPasricha_2010X'
p2002
sS'lewis_pugh_swims_the_north_pole'
p2003
S'LewisPugh_2009G'
p2004
sS'lisa_harouni_a_primer_on_3d_printing'
p2005
S'LisaHarouni_2011S'
p2006
sS'cosmin_mihaiu_physical_therapy_is_boring_play_a_game_instead'
p2007
S'CosminMihaiu_2015U'
p2008
sS'margaret_heffernan_dare_to_disagree'
p2009
S'MargaretHeffernan_2012G'
p2010
sS'ken_robinson_says_schools_kill_creativity'
p2011
S'SirKenRobinson_2006'
p2012
sS'jonathan_eisen_meet_your_microbes'
p2013
S'JonathanEisen_2012P'
p2014
sS'dan_dennett_on_dangerous_memes'
p2015
S'DanDennett_2002'
p2016
sS'lucianne_walkowicz_let_s_not_use_mars_as_a_backup_planet'
p2017
S'LucianneWalkowicz_2015U'
p2018
sS'henry_evans_and_chad_jenkins_meet_the_robots_for_humanity'
p2019
S'HenryEvans_2013X'
p2020
sS'markham_nolan_how_to_separate_fact_and_fiction_online'
p2021
S'MarkhamNolan_2012S'
p2022
sS'jae_rhim_lee'
p2023
S'JaeRhimLee_2011G'
p2024
sS'aomawa_shields_how_we_ll_find_life_on_other_planets'
p2025
S'AomawaShields_2015U'
p2026
sS'lisa_kristine_glimpses_of_modern_day_slavery'
p2027
S'LisaKristine_2012X'
p2028
sS'zak_ebrahim_i_am_the_son_of_a_terrorist_here_s_how_i_chose_peace'
p2029
S'ZakEbrahim_2014'
p2030
sS'kees_moeliker_how_a_dead_duck_changed_my_life'
p2031
S'KeesMoeliker_2013'
p2032
sS'hannah_fry_the_mathematics_of_love'
p2033
S'HannahFry_2014X'
p2034
sS'molly_crockett_beware_neuro_bunk'
p2035
S'MollyCrockett_2012S'
p2036
sS'joshua_klein_on_the_intelligence_of_crows'
p2037
S'JoshuaKlein_2008'
p2038
sS'cesar_harada_a_novel_idea_for_cleaning_up_oil_spills'
p2039
S'CesarHarada_2012S'
p2040
sS'rose_george_inside_the_secret_shipping_industry'
p2041
S'RoseGeorge_2013S'
p2042
sS'stefan_larsson_what_doctors_can_learn_from_each_other'
p2043
S'StefanLarsson_2013S'
p2044
sS'hans_rosling_at_state'
p2045
S'HansRosling_2009S'
p2046
sS'david_pogue_on_the_music_wars'
p2047
S'DavidPogue_2007'
p2048
sS'benjamin_barber_why_mayors_should_rule_the_world'
p2049
S'BenjaminBarber_2013G'
p2050
sS'asher_hasan_s_message_of_peace_from_pakistan'
p2051
S'AsherHasan_2009I'
p2052
sS'frans_de_waal_do_animals_have_morals'
p2053
S'FransDeWaal_2011X'
p2054
sS'caleb_chung_plays_with_pleo'
p2055
S'CalebChung_2007P'
p2056
sS'james_patten_the_best_computer_interface_maybe_your_hands'
p2057
S'JamesPatten_2013U'
p2058
sS'janine_shepherd_a_broken_body_isn_t_a_broken_person'
p2059
S'JanineShepherd_2012X'
p2060
sS'steven_pinker_on_the_myth_of_violence'
p2061
S'StevenPinker_2007'
p2062
sS'dambisa_moyo_is_china_the_new_idol_for_emerging_economies'
p2063
S'DambisaMoyo_2013G'
p2064
sS'stanley_mcchrystal'
p2065
S'StanleyMcChrystal_2011'
p2066
sS'steve_jurvetson_on_model_rocketry'
p2067
S'SteveJurvetson_2007'
p2068
sS'jackie_tabick'
p2069
S'JackieTabick_2009P'
p2070
sS'al_gore_s_new_thinking_on_the_climate_crisis'
p2071
S'AlGore_2008'
p2072
sS'dennis_hong_my_seven_species_of_robot'
p2073
S'DennisHong_2009X'
p2074
sS'tim_harford_how_messy_problems_can_inspire_creativity'
p2075
S'TimHarford_2015G'
p2076
sS'robert_hammond_building_a_park_in_the_sky'
p2077
S'RobertHammond_2011U'
p2078
sS'sebastian_deterding_what_your_designs_say_about_you'
p2079
S'SebastianDeterding_2011X'
p2080
sS'jonas_gahr_store_in_defense_of_dialogue'
p2081
S'JonasGahrStore_2011X'
p2082
sS'nellie_mckay_sings_the_dog_song'
p2083
S'NellieMcKay_TheDogSong_2008'
p2084
sS'adam_spencer_why_i_fell_in_love_with_monster_prime_numbers'
p2085
S'AdamSpencer_2013'
p2086
sS'johan_rockstrom_let_the_environment_guide_our_development'
p2087
S'JohanRockstroem_2010G'
p2088
sS'andrew_mcafee_are_droids_taking_our_jobs'
p2089
S'AndrewMcAfee_2012X'
p2090
sS'dustin_yellin_a_journey_through_the_mind_of_an_artist'
p2091
S'DustinYellin_2014S'
p2092
sS'tristram_stuart_the_global_food_waste_scandal'
p2093
S'TristramStuart_2012S'
p2094
sS'nadia_al_sakkaf_see_yemen_through_my_eyes'
p2095
S'NadiaAlSakkaf_2011G'
p2096
sS'nic_marks_the_happy_planet_index'
p2097
S'NicMarks_2010G'
p2098
sS'astonishing_performance_by_a_venezuelan_youth_orchestra_1'
p2099
S'TeresaCarrenoOrchestra_2009'
p2100
sS'sharmeen_obaid_chinoy_inside_a_school_for_suicide_bombers'
p2101
S'SharmeenObaidChinoy_2010U'
p2102
sS'marco_tempest_a_cyber_magic_card_trick_like_no_other'
p2103
S'MarcoTempest_2012G'
p2104
sS'angelica_dass_the_beauty_of_human_skin_in_every_color'
p2105
S'AngelicaDass_2016'
p2106
sS'juan_enriquez_will_our_kids_be_a_different_species'
p2107
S'JuanEnriquez_2012S'
p2108
sS'paul_maccready_on_nature_vs_humans'
p2109
S'PaulMacCready_1998'
p2110
sS'joshua_foer_feats_of_memory_anyone_can_do'
p2111
S'JoshuaFoer_2012'
p2112
sS'anna_deavere_smith_s_american_character'
p2113
S'AnnaDeavereSmith_2005'
p2114
sS'franco_sacchi_on_nollywood'
p2115
S'FrancoSacchi_2007G'
p2116
sS'robert_swan_let_s_save_the_last_pristine_continent'
p2117
S'RobertSwan_2014G'
p2118
sS'clifford_stoll_on_everything'
p2119
S'CliffordStoll_2006'
p2120
sS'deborah_rhodes'
p2121
S'DeborahRhodes_2010W'
p2122
sS'chris_downey_design_with_the_blind_in_mind'
p2123
S'ChrisDowney_2013Z'
p2124
sS'iain_hutchison_saving_faces'
p2125
S'IainHutchison_2010G'
p2126
sS'zahra_langhi_why_libya_s_revolution_didn_t_work_and_what_might'
p2127
S'ZahraLanghi_2012X'
p2128
sS'ed_boyden'
p2129
S'EdBoyden_2011'
p2130
sS'nalini_nadkarni_life_science_in_prison'
p2131
S'NaliniNadkarni_2010U'
p2132
sS'michael_green_why_we_should_build_wooden_skyscrapers'
p2133
S'MichaelGreen_2013'
p2134
sS'shaka_senghor_why_your_worst_deeds_don_t_define_you'
p2135
S'ShakaSenghor_2014'
p2136
sS'ann_cooper_talks_school_lunches'
p2137
S'AnnCooper_2007P'
p2138
sS'philip_zimbardo_prescribes_a_healthy_take_on_time'
p2139
S'PhilZimbardo_2009U'
p2140
sS'peter_van_manen_how_can_formula_1_racing_help_babies'
p2141
S'PeterVanManen_2013X'
p2142
sS'halla_tomasdottir'
p2143
S'HallaTomasdottir_2010W'
p2144
sS'thelma_golden_how_art_gives_shape_to_cultural_change'
p2145
S'ThelmaGolden_2009'
p2146
sS'karen_thompson_walker_what_fear_can_teach_us'
p2147
S'KarenThompsonWalker_2012G'
p2148
sS'aaron_koblin'
p2149
S'AaronKoblin_2011'
p2150
sS'keren_elazari_hackers_the_internet_s_immune_system'
p2151
S'KerenElazari_2014'
p2152
sS'david_cameron'
p2153
S'DavidCameron_2010'
p2154
sS'terry_moore_why_is_x_the_unknown'
p2155
S'TerryMoore_2012'
p2156
sS'trevor_aaronson_how_this_fbi_strategy_is_actually_creating_us_based_terrorists'
p2157
S'TrevorAaronson_2015U'
p2158
sS'colin_camerer_neuroscience_game_theory_monkeys'
p2159
S'ColinCamerer_2013X'
p2160
sS'nonny_de_la_pena_the_future_of_news_virtual_reality'
p2161
S'NonnydelaPena_2015W'
p2162
sS'ernesto_sirolli_want_to_help_someone_shut_up_and_listen'
p2163
S'ErnestoSirolli_2012X'
p2164
sS'fred_swaniker_the_leaders_who_ruined_africa_and_the_generation_who_can_fix_it'
p2165
S'FredSwaniker_2014G'
p2166
sS'willie_smits_restores_a_rainforest'
p2167
S'WillieSmits_2009'
p2168
sS'richard_branson_s_life_at_30_000_feet'
p2169
S'RichardBranson_2007-320k'
p2170
sS'ricardo_semler_radical_wisdom_for_a_company_a_school_a_life'
p2171
S'RicardoSemler_2014G'
p2172
sS'seth_berkley_the_troubling_reason_why_vaccines_are_made_too_late_if_they_re_made_at_all'
p2173
S'SethBerkley_2015'
p2174
sS'daniel_reisel_the_neuroscience_of_restorative_justice'
p2175
S'DanielReisel_2013'
p2176
sS'alison_gopnik_what_do_babies_think'
p2177
S'AlisonGopnik_2011G'
p2178
sS'craig_venter_on_dna_and_the_sea'
p2179
S'CraigVenter_2005G'
p2180
sS'thomas_suarez_a_12_year_old_app_developer'
p2181
S'ThomasSuarez_2011X'
p2182
sS'hannah_brencher_love_letters_to_strangers'
p2183
S'HannahBrencher_2012S'
p2184
sS'devdutt_pattanaik'
p2185
S'DevduttPattanaik_2009I'
p2186
sS'ananda_shankar_jayant_fights_cancer_with_a_dance'
p2187
S'AnandaShankar_2009I'
p2188
sS'lorrie_faith_cranor_what_s_wrong_with_your_pa_w0rd'
p2189
S'LorrieCranor_2014X'
p2190
sS'ngozi_okonjo_iweala_on_aid_versus_trade'
p2191
S'NgoziOkonjoIweala_2007G'
p2192
sS'achenyo_idachaba_how_i_turned_a_deadly_plant_into_a_thriving_business'
p2193
S'AchenyoIdachaba_2015W'
p2194
sS'paola_antonelli_treats_design_as_art'
p2195
S'PaolaAntonelli_2007'
p2196
sS'peter_singer_the_why_and_how_of_effective_altruism'
p2197
S'PeterSinger_2013'
p2198
sS'ernest_madu_on_world_class_health_care'
p2199
S'ErnestMadu_2007G'
p2200
sS'jacqueline_novogratz_on_an_escape_from_poverty'
p2201
S'JacquelineNovogratz_2009U'
p2202
sS'paul_maccready_flies_on_solar_wings'
p2203
S'PaulMacCready_2003'
p2204
sS'cheryl_hayashi_the_magnificence_of_spider_silk'
p2205
S'CherylHayashi_2010'
p2206
sS'danny_hillis_two_frontiers_of_cancer_treatment'
p2207
S'DannyHillis_2010P'
p2208
sS'bill_strickland_makes_change_with_a_slide_show'
p2209
S'BillStrickland_2002'
p2210
sS'israel_and_iran_a_love_story'
p2211
S'RonnyEdry_2012X'
p2212
sS'aj_jacobs_the_world_s_largest_family_reunion_we_re_all_invited'
p2213
S'AJJacobs_2014A'
p2214
sS'rives_reinventing_the_encyclopedia_game'
p2215
S'Rives_2012S'
p2216
sS'keith_barry_does_brain_magic'
p2217
S'KeithBarry_2004'
p2218
sS'mick_mountz_the_hidden_world_of_box_packing'
p2219
S'MickMountz_2011X'
p2220
sS'natalie_macmaster_and_donnell_leahy_play_the_cape_breton_fiddle'
p2221
S'NatalieMacMaster_2003'
p2222
sS'chieko_asakawa_how_new_technology_helps_blind_people_explore_the_world'
p2223
S'ChiekoAsakawa_2015S'
p2224
sS'lesley_hazleton_the_doubt_essential_to_faith'
p2225
S'LesleyHazleton_2013G'
p2226
sS'shea_hembrey_how_i_became_100_artists'
p2227
S'SheaHembrey_2011'
p2228
sS'anant_agarwal_why_massively_open_online_courses_still_matter'
p2229
S'AnantAgarwal_2013G'
p2230
sS'fabian_oefner_psychedelic_science'
p2231
S'FabianOefner_2013G'
p2232
sS'james_hansen_why_i_must_speak_out_about_climate_change'
p2233
S'JamesHansen_2012'
p2234
sS'catherine_crump_the_small_and_surprisingly_dangerous_detail_the_police_track_about_you'
p2235
S'CatherineCrump_2014G'
p2236
sS'holly_morris_why_stay_in_chernobyl_because_it_s_home'
p2237
S'HollyMorris_2013G'
p2238
sS'harsha_bhogle_the_rise_of_cricket_the_rise_of_india'
p2239
S'HarshaBhogle_2009I'
p2240
sS'stacey_kramer_the_best_gift_i_ever_survived'
p2241
S'StaceyKramer_2010'
p2242
sS'susan_solomon_the_promise_of_research_with_stem_cells'
p2243
S'SusanSolomon_2012G'
p2244
sS'sally_kohn_don_t_like_clickbait_don_t_click'
p2245
S'SallyKohn_2014S'
p2246
sS'noah_wilson_rich_every_city_needs_healthy_honey_bees'
p2247
S'NoahWilsonRich_2012X'
p2248
sS'beau_lotto_optical_illusions_show_how_we_see'
p2249
S'BeauLotto_2009G'
p2250
sS'harvey_fineberg_are_we_ready_for_neo_evolution'
p2251
S'HarveyFineberg_2011'
p2252
sS'shaolan_learn_to_read_chinese_with_ease'
p2253
S'ShaoLanHsueh_2013'
p2254
sS'gever_tulley_s_tinkering_school_in_action'
p2255
S'GeverTulley_2009'
p2256
sS'faith_jegede_what_i_ve_learned_from_my_autistic_brothers'
p2257
S'FaithJegede_2012S'
p2258
sS'jason_clay_how_big_brands_can_save_biodiversity'
p2259
S'JasonClay_2010G'
p2260
sS'michael_sandel_why_we_shouldn_t_trust_markets_with_our_civic_life'
p2261
S'MichaelSandel_2013G'
p2262
sS'jack_horner_shape_shifting_dinosaurs'
p2263
S'JackHorner_2010X'
p2264
sS'keller_rinaudo_a_mini_robot_powered_by_your_phone'
p2265
S'KellerRinaudo_2013'
p2266
sS'julie_taymor_spider_man_the_lion_king_and_life_on_the_creative_edge'
p2267
S'JulieTaymor_2011'
p2268
sS'bono_the_good_news_on_poverty_yes_there_s_good_news'
p2269
S'Bono_2013'
p2270
sS'raul_midon_plays_all_the_answers_and_tembererana'
p2271
S'RaulMidon_Tembererana_2007'
p2272
sS'richard_ledgett_the_nsa_responds_to_edward_snowden_s_ted_talk'
p2273
S'RichardLedgett_2014'
p2274
sS'ray_anderson_on_the_business_logic_of_sustainability'
p2275
S'RayAnderson_2009'
p2276
sS'scott_kim_takes_apart_the_art_of_puzzles'
p2277
S'ScottKim_2008P'
p2278
sS'raghava_kk_shake_up_your_story'
p2279
S'RaghavaKK_2011G'
p2280
sS'lee_hotz_inside_an_antarctic_time_machine'
p2281
S'LeeHotz_2010G'
p2282
sS'laurie_garrett_on_lessons_from_the_1918_flu'
p2283
S'LaurieGarrett_2007U'
p2284
sS'maz_jobrani_make_jokes_not_bombs'
p2285
S'MazJobrani_2010G'
p2286
sS'matthew_carter_my_life_in_typefaces'
p2287
S'MatthewCarter_2014'
p2288
sS'arthur_benjamin_does_mathemagic'
p2289
S'ArthurBenjamin_2005'
p2290
sS'emily_oster_flips_our_thinking_on_aids_in_africa'
p2291
S'EmilyOster_2007'
p2292
sS'martin_rees_can_we_prevent_the_end_of_the_world'
p2293
S'SirMartinRees_2014U'
p2294
sS'erin_mckean_go_ahead_make_up_new_words'
p2295
S'ErinMcKean_2014Y'
p2296
sS'ray_zahab_treks_to_the_south_pole'
p2297
S'RayZahab_2009'
p2298
sS'hans_rosling_the_truth_about_hiv'
p2299
S'HansRosling_2009'
p2300
sS'joshua_prince_ramus_building_a_theater_that_remakes_itself'
p2301
S'JoshuaPrinceRamus_2009X'
p2302
sS'sheryl_sandberg_why_we_have_too_few_women_leaders'
p2303
S'SherylSandberg_2010W'
p2304
sS'joseph_nye_on_global_power_shifts'
p2305
S'JosephNye_2010G'
p2306
sS'geoffrey_west_the_surprising_math_of_cities_and_corporations'
p2307
S'GeoffreyWest_2011G'
p2308
sS'james_watson_on_how_he_discovered_dna'
p2309
S'JamesWatson_2005'
p2310
sS'nicholas_christakis_how_social_networks_predict_epidemics'
p2311
S'NicholasChristakis_2010S'
p2312
sS'dee_boersma_pay_attention_to_penguins'
p2313
S'DeeBoersma_2010Z'
p2314
sS'alex_tabarrok_foresees_economic_growth'
p2315
S'AlexTabarrok_2009'
p2316
sS'spencer_wells_is_building_a_family_tree_for_all_humanity'
p2317
S'SpencerWells_2007G'
p2318
sS'amber_case_we_are_all_cyborgs_now'
p2319
S'AmberCase_2010W'
p2320
sS'bonnie_bassler_on_how_bacteria_communicate'
p2321
S'BonnieBassler_2009'
p2322
sS'handpring_puppet_co_the_genius_puppetry_behind_war_horse'
p2323
S'HandspringPuppetCompany_2011'
p2324
sS'kiran_bir_sethi_teaches_kids_to_take_charge'
p2325
S'KiranBirSethi_2009I'
p2326
sS'verna_myers_how_to_overcome_our_biases_walk_boldly_toward_them'
p2327
S'VernaMyers_2014X'
p2328
sS'alessandro_acquisti_why_privacy_matters'
p2329
S'AlessandroAcquisti_2013G'
p2330
sS'tim_brown_urges_designers_to_think_big'
p2331
S'TimBrown_2009G'
p2332
sS'nicholas_negroponte_on_one_laptop_per_child'
p2333
S'NicholasNegroponte_2006'
p2334
sS'stanley_mcchrystal_the_military_case_for_sharing_knowledge'
p2335
S'StanleyMcChrystal_2014U'
p2336
sS'derek_sivers_how_to_start_a_movement'
p2337
S'DerekSivers_2010U'
p2338
sS'evelyn_glennie_shows_how_to_listen'
p2339
S'EvelynGlennie_2003'
p2340
sS'hadyn_parry_re_engineering_mosquitos_to_fight_disease'
p2341
S'HadynParry_2012S'
p2342
sS'ethan_nadelmann_why_we_need_to_end_the_war_on_drugs'
p2343
S'EthanNadelmann_2014G'
p2344
sS'kakenya_ntaiya_a_girl_who_demanded_school'
p2345
S'KakenyaNtaiya_2012X'
p2346
sS'doris_kearns_goodwin_on_learning_from_past_presidents'
p2347
S'DorisKearnsGoodwin_2008'
p2348
sS'bill_gates_teachers_need_real_feedback'
p2349
S'BillGates_2013S'
p2350
sS'todd_kuiken_a_prosthetic_arm_that_feels'
p2351
S'ToddKuiken_2011G'
p2352
sS'jane_mcgonigal_gaming_can_make_a_better_world'
p2353
S'JaneMcGonigal_2010'
p2354
sS'burt_rutan_sees_the_future_of_space'
p2355
S'BurtRutan_2006'
p2356
sS'benedetta_berti_the_surprising_way_groups_like_isis_stay_in_power'
p2357
S'BenedettaBerti_2015U'
p2358
sS'arvind_gupta_turning_trash_into_toys_for_learning'
p2359
S'ArvindGupta_2010P'
p2360
sS'mileha_soneji_simple_hacks_for_life_with_parkinson_s'
p2361
S'MilehaSoneji_2015X'
p2362
sS'vinay_venkatraman_technology_crafts_for_the_digitally_underserved'
p2363
S'VinayVenkatraman_2012S'
p2364
sS'david_binder_the_arts_festival_revolution'
p2365
S'DavidBinder_2012G'
p2366
sS'gregory_stock_to_upgrade_is_human'
p2367
S'GregoryStock_2003'
p2368
sS'julian_baggini_is_there_a_real_you'
p2369
S'JulianBaggini_2011X'
p2370
sS'magnus_larsson_turning_dunes_into_architecture'
p2371
S'MagnusLarsson_2009G'
p2372
sS'laurel_braitman_depressed_dogs_cats_with_ocd_what_animal_madness_means_for_us_humans'
p2373
S'LaurelBraitman_2014S'
p2374
sS'michael_tilson_thomas_music_and_emotion_through_time'
p2375
S'MichaelTilsonThomas_2012'
p2376
sS'elon_musk_the_mind_behind_tesla_spacex_solarcity'
p2377
S'ElonMusk_2013'
p2378
sS'james_nachtwey_fights_xdrtb'
p2379
S'XDRTB_2008'
p2380
sS'tim_leberecht_3_ways_to_usefully_lose_control_of_your_reputation'
p2381
S'TimLeberecht_2012G'
p2382
sS'barry_schwartz_using_our_practical_wisdom'
p2383
S'BarrySchwartz_2010S'
p2384
sS'einstein_the_parrot_talks_and_squawks'
p2385
S'EinsteinTheParrot_2006'
p2386
sS'liz_coleman_s_call_to_reinvent_liberal_arts_education'
p2387
S'LizColeman_2009'
p2388
sS'peter_haas_haiti_s_disaster_of_engineering'
p2389
S'PeterHaas_2010G'
p2390
sS'david_anderson_your_brain_is_more_than_a_bag_of_chemicals'
p2391
S'DavidAnderson_2013X'
p2392
sS'shimon_steinberg_natural_pest_control_using_bugs'
p2393
S'ShimonSteinberg_2010X'
p2394
sS'jp_rangaswami_information_is_food'
p2395
S'JPRangaswami_2012S'
p2396
sS'stephen_friend_the_hunt_for_unexpected_genetic_heroes'
p2397
S'StephenFriend_2014'
p2398
sS'francis_de_los_reyes_sanitation_is_a_basic_human_right'
p2399
S'FrancisdelosReyes_2013U'
p2400
sS'baba_shiv_sometimes_it_s_good_to_give_up_the_driver_s_seat'
p2401
S'BabaShiv_2012X'
p2402
sS'george_ayittey_on_cheetahs_vs_hippos'
p2403
S'GeorgeAyittey_2007G'
p2404
sS'jill_shargaa_please_please_people_let_s_put_the_awe_back_in_awesome'
p2405
S'JillShargaa_2014S'
p2406
sS'eric_berlow_and_sean_gourley_mapping_ideas_worth_spreading'
p2407
S'EricBerlow_2013U'
p2408
sS'james_stavridis_how_nato_s_supreme_commander_thinks_about_global_security'
p2409
S'JamesStavridis_2012G'
p2410
sS'christopher_soghoian_government_surveillance_this_is_just_the_beginning'
p2411
S'ChristopherSoghoian_2013U'
p2412
sS'saul_griffith_on_everyday_inventions'
p2413
S'SaulGriffith_2006'
p2414
sS'matthew_childs_9_rules_of_rock_climbing'
p2415
S'MatthewChilds_2009U'
p2416
sS'katherine_fulton_you_are_the_future_of_philanthropy'
p2417
S'KatherineFulton_2007'
p2418
sS'dan_dennett_cute_sexy_sweet_funny'
p2419
S'DanDennett_2009U'
p2420
sS'nancy_lublin_texting_that_saves_lives'
p2421
S'NancyLublin_2012U'
p2422
sS'kavita_ramdas_radical_women_embracing_tradition'
p2423
S'KavitaRamdas_2009I'
p2424
sS'larry_brilliant_makes_the_case_for_optimism'
p2425
S'LarryBrilliant_2007P'
p2426
sS'read_montague_what_we_re_learning_from_5_000_brains'
p2427
S'ReadMontague_2012G'
p2428
sS'lawrence_lessig_we_the_people_and_the_republic_we_must_reclaim'
p2429
S'LarryLessig_2013'
p2430
sS'raffaello_d_andrea_meet_the_dazzling_flying_machines_of_the_future'
p2431
S'RaffaelloDAndrea_2016'
p2432
sS'stephen_wolfram_computing_a_theory_of_everything'
p2433
S'StephenWolfram_2010'
p2434
sS'isaac_mizrahi_on_fashion_and_creativity'
p2435
S'IsaacMizrahi_2008'
p2436
sS'mechai_viravaidya_how_mr_condom_made_thailand_a_better_place'
p2437
S'MechaiViravaidya_2010X'
p2438
sS'ian_dunbar_on_dog_friendly_dog_training'
p2439
S'IanDunbar_2007P'
p2440
sS'rachel_pike_the_science_behind_a_climate_headline'
p2441
S'RachelPike_2009G'
p2442
sS'andreas_schleicher_use_data_to_build_better_schools'
p2443
S'AndreasSchleicher_2012G'
p2444
sS'harry_baker_a_love_poem_for_lonely_prime_numbers'
p2445
S'HarryBaker_2014X'
p2446
sS'jessica_green_are_we_filtering_the_wrong_microbes'
p2447
S'JessicaGreen_2011G'
p2448
sS'two_young_scientists_break_down_plastics_with_bacteria'
p2449
S'MirandaWang_2013'
p2450
sS'erik_brynjolfsson_the_key_to_growth_race_em_with_em_the_machines'
p2451
S'ErikBrynjolfsson_2013'
p2452
sS'nancy_etcoff_on_happiness_and_why_we_want_it'
p2453
S'NancyEtcoff_2004'
p2454
sS'carol_fishman_cohen_how_to_get_back_to_work_after_a_career_break'
p2455
S'CarolFishmanCohen_2015X'
p2456
sS'jane_fonda_and_lily_tomlin_a_hilarious_celebration_of_lifelong_female_friendship'
p2457
S'JaneFonda_2015W'
p2458
sS'aspen_baker_a_better_way_to_talk_about_abortion'
p2459
S'AspenBaker_2015W'
p2460
sS'bruno_bowden_folds_while_rufus_cappadocia_plays'
p2461
S'BrunoBowden_2008'
p2462
sS'theo_jansen_creates_new_creatures'
p2463
S'TheoJansen_2007'
p2464
sS'julian_treasure_why_architects_need_to_use_their_ears'
p2465
S'JulianTreasure_2012G'
p2466
sS'gary_flake_is_pivot_a_turning_point_for_web_exploration'
p2467
S'GaryFlake_2010'
p2468
sS'richard_resnick_welcome_to_the_genomic_revolution'
p2469
S'RichardResnick_2011X'
p2470
sS'claron_mcfadden_singing_the_primal_mystery'
p2471
S'ClaronMcFadden_2010X'
p2472
sS'rebecca_saxe_how_brains_make_moral_judgments'
p2473
S'RebeccaSaxe_2009G'
p2474
sS'gary_greenberg_the_beautiful_nano_details_of_our_world'
p2475
S'GaryGreenberg_2012X'
p2476
sS'jason_mccue_terrorism_is_a_failed_brand'
p2477
S'JasonMcCue_2012G'
p2478
sS'paul_romer_the_world_s_first_charter_city'
p2479
S'PaulRomer_2011U'
p2480
sS'frank_gehry_as_a_young_rebel'
p2481
S'FrankGehry_1990'
p2482
sS'mary_lou_jepsen_could_future_devices_read_images_from_our_brains'
p2483
S'MaryJepsen_2013'
p2484
sS'angelo_vermeulen_how_to_go_to_space_without_having_to_go_to_space'
p2485
S'AngeloVermeulen_2014U'
p2486
sS'carolyn_porco_could_a_saturn_moon_harbor_life'
p2487
S'CarolynPorco_2009U'
p2488
sS'antonio_donato_nobre_the_magic_of_the_amazon_a_river_that_flows_invisibly_all_around_us'
p2489
S'AntonioDonatoNobre_2010X'
p2490
sS'sangu_delle_in_praise_of_macro_yes_macro_finance_in_africa'
p2491
S'SanguDelle_2014G'
p2492
sS'john_maeda_how_art_technology_and_design_inform_creative_leaders'
p2493
S'JohnMaeda_2012G'
p2494
sS'alexander_tsiaras_conception_to_birth_visualized'
p2495
S'AlexanderTsiaras_2010P'
p2496
sS'natalie_jeremijenko_the_art_of_the_eco_mindshift'
p2497
S'NatalieJeremijenko_2009P'
p2498
sS'michael_kimmel_why_gender_equality_is_good_for_everyone_men_included'
p2499
S'MichaelKimmel_2015W'
p2500
sS'thomas_insel_toward_a_new_understanding_of_mental_illness'
p2501
S'ThomasInsel_2013X'
p2502
sS'siegfried_woldhek_shows_how_he_found_the_true_face_of_leonardo'
p2503
S'SiegfriedWoldhek_2008'
p2504
sS'quixotic_fusion_dancing_with_light'
p2505
S'Quixotic_2012'
p2506
sS'bill_gates'
p2507
S'BillGates_2010'
p2508
sS'ron_mccallum_how_technology_allowed_me_to_read'
p2509
S'RonMcCallum_2013X'
p2510
sS'ben_saunders_to_the_south_pole_and_back_the_hardest_105_days_of_my_life'
p2511
S'BenSaunders_2014'
p2512
sS'danny_hillis_back_to_the_future_of_1994'
p2513
S'DannyHillis_1994'
p2514
sS'jimmy_carter_why_i_believe_the_mistreatment_of_women_is_the_number_one_human_rights_abuse'
p2515
S'JimmyCarter_2015W'
p2516
sS'edward_snowden_here_s_how_we_take_back_the_internet'
p2517
S'EdwardSnowden_2014'
p2518
sS'sebastiao_salgado_the_silent_drama_of_photography'
p2519
S'SebastiaoSalgado_2013'
p2520
sS'damon_horowitz'
p2521
S'DamonHorowitz_2011X'
p2522
sS'adora_svitak'
p2523
S'AdoraSvitak_2010'
p2524
sS'caroline_casey_looking_past_limits'
p2525
S'CarolineCasey_2010W'
p2526
sS'jon_ronson_strange_answers_to_the_psychopath_test'
p2527
S'JonRonson_2012'
p2528
sS'jeff_smith_lessons_in_business_from_prison'
p2529
S'JeffSmith_2012S'
p2530
sS'r_a_mashelkar_breakthrough_designs_for_ultra_low_cost_products'
p2531
S'RAMashelkar_2009I'
p2532
sS'cameron_sinclair_on_open_source_architecture'
p2533
S'CameronSinclair_2006'
p2534
sS'may_el_khalil_making_peace_is_a_marathon'
p2535
S'MayElKhalil_2013G'
p2536
sS'elene_gabre_madhin_on_ethiopian_economics'
p2537
S'EleniGabreMadhin_2007G'
p2538
sS'tan_le_a_headset_that_reads_your_brainwaves'
p2539
S'TanLe_2010G'
p2540
sS'martin_hanczyc_the_line_between_life_and_not_life'
p2541
S'MartinHanczyc_2011S'
p2542
sS'edi_rama_take_back_your_city_with_paint'
p2543
S'EdiRama_2012X'
p2544
sS'the_lxd_in_the_internet_age_dance_evolves'
p2545
S'TheLXD_2010'
p2546
sS'elizabeth_lindsey_curating_humanity_s_heritage'
p2547
S'ElizabethLindsey_2010W'
p2548
sS'charles_leadbeater_on_education'
p2549
S'CharlesLeadbeater_2010S'
p2550
sS'karima_bennoune_the_side_of_terrorism_that_doesn_t_make_headlines'
p2551
S'KarimaBennoune_2014X'
p2552
sS'gary_slutkin_let_s_treat_violence_like_a_contagious_disease'
p2553
S'GarySlutkin_2013P'
p2554
sS'hasan_elahi'
p2555
S'HasanElahi_2011G'
p2556
sS'sherry_turkle_alone_together'
p2557
S'SherryTurkle_2012'
p2558
sS'janet_echelman'
p2559
S'JanetEchelman_2011'
p2560
sS'taiye_selasi_don_t_ask_where_i_m_from_ask_where_i_m_a_local'
p2561
S'TaiyeSelasi_2014G'
p2562
sS'amory_lovins_a_50_year_plan_for_energy'
p2563
S'AmoryLovins_2012S'
p2564
sS'john_doerr_sees_salvation_and_profit_in_greentech'
p2565
S'JohnDoerr_2007'
p2566
sS'chris_urmson_how_a_driverless_car_sees_the_road'
p2567
S'ChrisUrmson_2015'
p2568
sS'thomas_peschak_dive_into_an_ocean_photographer_s_world'
p2569
S'ThomasPeschak_2015Z'
p2570
sS'bill_davenhall_your_health_depends_on_where_you_live'
p2571
S'BillDavenhall_2009P'
p2572
sS'jenni_chang_and_lisa_dazols_this_is_what_lgbt_life_is_like_around_the_world'
p2573
S'JenniChang_2015W'
p2574
sS'peter_fankhauser_meet_rezero_the_dancing_ballbot'
p2575
S'PeterFankhauser_2011G'
p2576
sS'rodrigo_bijou_governments_don_t_understand_cyber_warfare_we_need_hackers'
p2577
S'RodrigoBijou_2015G'
p2578
sS'larry_lessig_says_the_law_is_strangling_creativity'
p2579
S'LarryLessig_2007'
p2580
sS'michael_mcdaniel_cheap_effective_shelter_for_disaster_relief'
p2581
S'MichaelMcDaniel_2012X'
p2582
sS'david_gruber_glow_in_the_dark_sharks_and_other_stunning_sea_creatures'
p2583
S'DavidGruber_2015Z'
p2584
sS'clay_shirky_on_institutions_versus_collaboration'
p2585
S'ClayShirky_2005G'
p2586
sS'hendrik_poinar_bring_back_the_woolly_mammoth'
p2587
S'HendrikPoinar_2013X'
p2588
sS'lord_nicholas_stern_the_state_of_the_climate_and_what_we_might_do_about_it'
p2589
S'LordNicholasStern_2014S'
p2590
sS'ken_robinson_how_to_escape_education_s_death_valley'
p2591
S'SirKenRobinson_2013S'
p2592
sS'will_marshall_teeny_tiny_satellites_that_photograph_the_entire_planet_every_day'
p2593
S'WillMarshall_2014'
p2594
sS'simon_sinek_how_great_leaders_inspire_action'
p2595
S'SimonSinek_2009X'
p2596
sS'sebastian_wernicke_1000_tedtalks_6_words'
p2597
S'SebastianWernicke_2011X'
p2598
sS'sanjay_pradhan_how_open_data_is_changing_international_aid'
p2599
S'SanjayPradhan_2012G'
p2600
sS'john_hunter_on_the_world_peace_game'
p2601
S'JohnHunter_2011'
p2602
sS'diane_kelly_what_we_didn_t_know_about_penis_anatomy'
p2603
S'DianeKelly_2012P'
p2604
sS'will_potter_the_secret_us_prisons_you_ve_never_heard_of_before'
p2605
S'WillPotter_2015F'
p2606
sS'hod_lipson_builds_self_aware_robots'
p2607
S'HodLipson_2007'
p2608
sS'stew_says_black_men_ski'
p2609
S'Stew_BlackMenSki_2006'
p2610
sS'naturally_7_jams_fly_baby_with_an_orchestra_of_vocals'
p2611
S'Naturally7_FlyBaby_2009'
p2612
sS'damian_palin_mining_minerals_from_seawater'
p2613
S'DamianPalin_2012U'
p2614
sS'mia_birdsong_the_story_we_tell_about_poverty_isn_t_true'
p2615
S'MiaBirdsong_2015W'
p2616
sS'chrystia_freeland_the_rise_of_the_new_global_super_rich'
p2617
S'ChrystiaFreeland_2013G'
p2618
sS'wendy_freedman_this_new_telescope_might_show_us_the_beginning_of_the_universe'
p2619
S'WendyFreedman_2014G'
p2620
sS'rob_dunbar'
p2621
S'RobDunbar_2010Z'
p2622
sS'lauren_zalaznick'
p2623
S'LaurenZalaznick_2010W'
p2624
sS'liz_diller_a_giant_bubble_for_debate'
p2625
S'LizDiller_2012'
p2626
sS'barry_schuler_genomics_101'
p2627
S'BarrySchuler_2008P'
p2628
sS'robert_gupta'
p2629
S'RobertGupta_2010U'
p2630
sS'drew_curtis_how_i_beat_a_patent_troll'
p2631
S'DrewCurtis_2012'
p2632
sS'brene_brown_listening_to_shame'
p2633
S'BreneBrown_2012'
p2634
sS'jeremy_jackson'
p2635
S'JeremyJackson_2010Z'
p2636
sS'jackson_browne_if_i_could_be_anywhere'
p2637
S'JacksonBrowne_2010X'
p2638
sS'alex_wissner_gross_a_new_equation_for_intelligence'
p2639
S'AlexWissnerGross_2013X'
p2640
sS'pico_iyer_where_is_home'
p2641
S'PicoIyer_2013G'
p2642
sS'derek_paravicini_and_adam_ockelford_in_the_key_of_genius'
p2643
S'AdamOckelford_2013X'
p2644
sS'chris_gerdes_the_future_race_car_150mph_and_no_driver'
p2645
S'ChrisGerdes_2012X'
p2646
sS'jamais_cascio_looks_ahead'
p2647
S'JamaisCascio_2006'
p2648
sS'talithia_williams_own_your_body_s_data'
p2649
S'TalithiaWilliams_2014X'
p2650
sS'seth_godin_on_the_tribes_we_lead'
p2651
S'SethGodin_2009'
p2652
sS'george_whitesides_a_lab_the_size_of_a_postage_stamp'
p2653
S'GeorgeWhitesides_2009X'
p2654
sS'inge_missmahl_brings_peace_to_the_minds_of_afghanistan'
p2655
S'IngeMissmahl_2010G'
p2656
sS'linda_liukas_a_delightful_way_to_teach_kids_about_computers'
p2657
S'LindaLiukas_2015X'
p2658
sS'vincent_moon_and_nana_vasconcelos_the_world_s_hidden_music_rituals'
p2659
S'VincentMoon_2014G'
p2660
sS'monika_bulaj_the_hidden_light_of_afghanistan'
p2661
S'MonikaBulaj_2011G'
p2662
sS'isabel_allende_tells_tales_of_passion'
p2663
S'IsabelAllende_2007'
p2664
sS'jeremy_gilley_one_day_of_peace'
p2665
S'JeremyGilley_2011G'
p2666
sS'luke_syson_how_i_learned_to_stop_worrying_and_love_useless_art'
p2667
S'LukeSyson_2013X'
p2668
sS'andy_hobsbawm_says_do_the_green_thing'
p2669
S'AndyHobsbawm_2008'
p2670
sS'marc_koska_the_devastating_toll_of_syringe_reuse'
p2671
S'MarcKoska_2009G'
p2672
sS'maya_penn_meet_a_young_entrepreneur_cartoonist_designer_activist'
p2673
S'MayaPenn_2013W'
p2674
sS'pranav_mistry_the_thrilling_potential_of_sixthsense_technology'
p2675
S'PranavMistry_2009I'
p2676
sS'david_bismark_e_voting_without_fraud'
p2677
S'DavidBismark_2010G'
p2678
sS'kamal_meattle_on_how_to_grow_your_own_fresh_air'
p2679
S'KamalMeattle_2009U'
p2680
sS'jane_poynter_life_in_biosphere_2'
p2681
S'JanePoynter_2009X'
p2682
sS'ueli_gegenschatz_extreme_wingsuit_jumping'
p2683
S'UeliGegenschatz_2009'
p2684
sS'thomas_thwaites_how_i_built_a_toaster_from_scratch'
p2685
S'ThomasThwaites_2010S'
p2686
sS'jim_fallon_exploring_the_mind_of_a_killer'
p2687
S'JimFallon_2009'
p2688
sS'christopher_ryan_are_we_designed_to_be_sexual_omnivores'
p2689
S'ChristopherRyan_2013'
p2690
sS'hans_rosling_the_good_news_of_the_decade'
p2691
S'HansRosling_2010X'
p2692
sS'david_lang_my_underwater_robot'
p2693
S'DavidLang_2013U'
p2694
sS'mike_matas'
p2695
S'MikeMatas_2011'
p2696
sS'matthieu_ricard_on_the_habits_of_happiness'
p2697
S'MatthieuRicard_2004'
p2698
sS'abigail_washburn_building_us_china_relations_by_banjo'
p2699
S'AbigailWashburn_2012U'
p2700
sS'roy_gould_and_curtis_wong_preview_the_worldwide_telescope'
p2701
S'RoyGould_2008'
p2702
sS'daniel_suarez_the_kill_decision_shouldn_t_belong_to_a_robot'
p2703
S'DanielSuarez_2013G'
p2704
sS'mike_biddle'
p2705
S'MikeBiddle_2011G'
p2706
sS'pia_mancini_how_to_upgrade_democracy_for_the_internet_era'
p2707
S'PiaMancini_2014G'
p2708
sS'regina_dugan_from_mach_20_glider_to_humming_bird_drone'
p2709
S'ReginaDugan_2012'
p2710
sS'cynthia_kenyon_experiments_that_hint_of_longer_lives'
p2711
S'CynthiaKenyon_2011G'
p2712
sS'elizabeth_pisani_sex_drugs_and_hiv_let_s_get_rational_1'
p2713
S'ElizabethPisani_2010'
p2714
sS'kevin_rudd_are_china_and_the_us_doomed_to_conflict'
p2715
S'KevinRudd_2015'
p2716
sS'oren_yakobovich_hidden_cameras_that_film_injustice_in_the_world_s_most_dangerous_places'
p2717
S'OrenYakobovich_2014G'
p2718
sS'robyn_stein_deluca_the_good_news_about_pms'
p2719
S'RobynSteinDeluca_2014X'
p2720
sS'pardis_sabeti_how_we_ll_fight_the_next_deadly_virus'
p2721
S'PardisSabeti_2015W'
p2722
sS'jeff_hancock_3_types_of_digital_lies'
p2723
S'JeffHancock_2012X'
p2724
sS'alanna_shaikh_how_i_m_preparing_to_get_alzheimer_s'
p2725
S'AlannaShaikh_2012G'
p2726
sS'rodrigo_canales_the_deadly_genius_of_drug_cartels'
p2727
S'RodrigoCanales_2013S'
p2728
sS'elizabeth_gilbert_success_failure_and_the_drive_to_keep_creating'
p2729
S'ElizabethGilbert_2014'
p2730
sS'jessa_gamble_how_to_sleep'
p2731
S'JessaGamble_2010G'
p2732
sS'peter_donnelly_shows_how_stats_fool_juries'
p2733
S'PeterDonnelly_2005G'
p2734
sS'melissa_fleming_let_s_help_refugees_thrive_not_just_survive'
p2735
S'MelissaFleming_2014G'
p2736
sS'atul_gawande_how_do_we_heal_medicine'
p2737
S'AtulGawande_2012'
p2738
sS'natasha_tsakos_multimedia_theatrical_adventure'
p2739
S'NatashaTsakos_2009'
p2740
sS'anil_ananthaswamy'
p2741
S'AnilAnanthaswamy_2010P'
p2742
sS'laura_robinson_the_secrets_i_find_on_the_mysterious_ocean_floor'
p2743
S'LauraRobinson_2014X'
p2744
sS'bill_and_melinda_gates_why_giving_away_our_wealth_has_been_the_most_satisfying_thing_we_ve_done'
p2745
S'BillGates_2014'
p2746
sS'chris_abani_muses_on_humanity'
p2747
S'ChrisAbani_2008'
p2748
sS'tracy_chevalier_finding_the_story_inside_the_painting'
p2749
S'TracyChevalier_2012S'
p2750
sS'rogier_van_der_heide_why_light_needs_darkness'
p2751
S'RogierVanDerHeide_2010X'
p2752
sS'thulasiraj_ravilla_how_low_cost_eye_care_can_be_world_class'
p2753
S'ThulasirajRavilla_2009I'
p2754
sS'elizabeth_lesser_take_the_other_to_lunch'
p2755
S'ElizabethLesser_2010W'
p2756
sS'jennifer_doudna_we_can_now_edit_our_dna_but_let_s_do_it_wisely'
p2757
S'JenniferDoudna_2015G'
p2758
sS'eddy_cartaya_my_glacier_cave_discoveries'
p2759
S'EddyCartaya_2013Y'
p2760
sS'emmanuel_jal_the_music_of_a_war_child'
p2761
S'EmmanuelJal_2009G'
p2762
sS'chip_kidd_the_art_of_first_impressions_in_design_and_life'
p2763
S'ChipKidd_2015S'
p2764
sS'kary_mullis_next_gen_cure_for_killer_infections'
p2765
S'KaryMullis_2009'
p2766
sS'shlomo_benartzi_saving_more_tomorrow'
p2767
S'ShlomoBenartzi_2011S'
p2768
sS'stewart_brand_on_squatter_cities'
p2769
S'StewartBrand_2006'
p2770
sS'takaharu_tezuka_the_best_kindergarten_you_ve_ever_seen'
p2771
S'TakaharuTezuka_2014X'
p2772
sS'laura_boushnak_for_these_women_reading_is_a_daring_act'
p2773
S'LauraBoushnak_2014U'
p2774
sS'carmen_agra_deedy_spins_stories'
p2775
S'CarmenAgraDeedy_2005'
p2776
sS'bertrand_piccard_s_solar_powered_adventure'
p2777
S'BertrandPiccard_2009G'
p2778
sS'shimon_schocken_the_self_organizing_computer_course'
p2779
S'ShimonSchocken_2012G'
p2780
sS'tom_shannon_s_magnetic_sculpture'
p2781
S'TomShannon_2003'
p2782
sS'michel_laberge_how_synchronized_hammer_strikes_could_generate_nuclear_fusion'
p2783
S'MichelLaberge_2014'
p2784
sS'cameron_russell_looks_aren_t_everything_believe_me_i_m_a_model'
p2785
S'CameronRussell_2012X'
p2786
sS'mike_velings_the_case_for_fish_farming'
p2787
S'MikeVelings_2015Z'
p2788
sS'marco_tempest_the_electric_rise_and_fall_of_nikola_tesla'
p2789
S'MarcoTempest_Session4_2012'
p2790
sS'juan_enriquez_wants_to_grow_energy'
p2791
S'JuanEnriquez_2007S'
p2792
sS'ze_frank_are_you_human'
p2793
S'ZeFrank_2014'
p2794
sS'tom_wujec_demos_the_13th_century_astrolabe'
p2795
S'TomWujec_2009G'
p2796
sS'christopher_emdin_teach_teachers_how_to_create_magic'
p2797
S'ChrisEmdin_2013S'
p2798
sS'natalie_macmaster_fiddles_in_reel_time'
p2799
S'NatalieMacMaster_2002'
p2800
sS'kare_anderson_be_an_opportunity_maker'
p2801
S'KareAnderson_2014S'
p2802
sS'bilal_bomani_plant_fuels_that_could_power_a_jet'
p2803
S'BilalBomani_2011X'
p2804
sS'clayton_cameron_a_rhythm_etic_the_math_behind_the_beats'
p2805
S'ClaytonCameron_2013Y'
p2806
sS'ze_frank_s_nerdcore_comedy'
p2807
S'ZeFrank_2004'
p2808
sS'jonathan_drori_the_beautiful_tricks_of_flowers'
p2809
S'JonathanDrori_2011S'
p2810
sS'stewart_brand_the_dawn_of_de_extinction_are_you_ready'
p2811
S'StewartBrand_2013'
p2812
sS'robert_full_learning_from_the_gecko_s_tail'
p2813
S'RobertFull_2009'
p2814
sS'nicole_paris_and_ed_cage_a_beatboxing_lesson_from_a_father_daughter_duo'
p2815
S'NicoleParis_2015Y'
p2816
sS'cameron_herold_let_s_raise_kids_to_be_entrepreneurs'
p2817
S'CameronHerold_2009X'
p2818
sS'david_mccandless_the_beauty_of_data_visualization'
p2819
S'DavidMcCandless_2010G'
p2820
sS'tom_shannon_the_painter_and_the_pendulum'
p2821
S'TomShannon_2009S'
p2822
sS'john_mcwhorter_txtng_is_killing_language_jk'
p2823
S'JohnMcWhorter_2013'
p2824
sS'wingham_rowan_a_new_kind_of_job_market'
p2825
S'WinghamRowan_2012S'
p2826
sS'samuel_cohen_alzheimer_s_is_not_normal_aging_and_we_can_cure_it'
p2827
S'SamuelCohen_2015S'
p2828
sS'ryan_lobo_through_the_lens_of_compassion'
p2829
S'RyanLobo_2009I'
p2830
sS'maya_beiser_s_and_her_cello_s'
p2831
S'MayaBeiser_2011'
p2832
sS'graham_hill_weekday_vegetarian'
p2833
S'GrahamHill_2010'
p2834
sS'kenneth_shinozuka_my_simple_invention_designed_to_keep_my_grandfather_safe'
p2835
S'KennethShinozuka_2014Y'
p2836
sS'ric_elias'
p2837
S'RicElias_2011U'
p2838
sS'leana_wen_what_your_doctor_won_t_disclose'
p2839
S'LeanaWen_2014P'
p2840
sS'jonathan_drori_why_we_re_storing_billions_of_seeds'
p2841
S'JonathanDrori_2009U'
p2842
sS'sarah_kay_if_i_should_have_a_daughter'
p2843
S'SarahKay_2011'
p2844
sS'arthur_benjamin_s_formula_for_changing_math_education'
p2845
S'ArthurBenjamin_2009'
p2846
sS'sherwin_nuland_on_electroshock_therapy'
p2847
S'SherwinNuland_2001'
p2848
sS'billy_graham_on_technology_faith_and_suffering'
p2849
S'BillyGraham_1998'
p2850
sS'tony_fadell_the_first_secret_of_design_is_noticing'
p2851
S'TonyFadell_2015'
p2852
sS'elizabeth_murchison'
p2853
S'ElizabethMurchison_2011G'
p2854
sS'stephen_ritz_a_teacher_growing_green_in_the_south_bronx'
p2855
S'StephenRitz_2012X'
p2856
sS'marco_tempest_the_augmented_reality_of_techno_magic'
p2857
S'MarcoTempest_Session7_2011G'
p2858
sS'jon_ronson_what_happens_when_online_shaming_spirals_out_of_control'
p2859
S'JonRonson_2015G'
p2860
sS'dan_gilbert_asks_why_are_we_happy'
p2861
S'DanGilbert_2004'
p2862
sS'steven_schwaitzberg_a_universal_translator_for_surgeons'
p2863
S'StevenSchwaitzberg_2012X'
p2864
sS'brian_greene_why_is_our_universe_fine_tuned_for_life'
p2865
S'BrianGreene_2012'
p2866
sS'stephen_cave_the_4_stories_we_tell_ourselves_about_death'
p2867
S'StephenCave_2013X'
p2868
sS'amy_lockwood_selling_condoms_in_the_congo'
p2869
S'AmyLockwood_2011G'
p2870
sS'mundano_pimp_my_trash_cart'
p2871
S'Mundano_2014U'
p2872
sS'ed_gavagan_a_story_about_knots_and_surgeons'
p2873
S'EdGavagan_2012P'
p2874
sS'kevin_allocca_why_videos_go_viral'
p2875
S'KevinAllocca_2011Y'
p2876
sS'mac_stone_stunning_photos_of_the_endangered_everglades'
p2877
S'MacStone_2015X'
p2878
sS'jok_church_a_circle_of_caring'
p2879
S'JokChurch_2007'
p2880
sS'stefan_sagmeister_on_what_he_has_learned'
p2881
S'StefanSagmeister_2008'
p2882
sS'rana_el_kaliouby_this_app_knows_how_you_feel_from_the_look_on_your_face'
p2883
S'RanaelKaliouby_2015W'
p2884
sS'thomas_hellum_the_world_s_most_boring_television_and_why_it_s_hilariously_addictive'
p2885
S'ThomasHellum_2014X'
p2886
sS'pamela_ronald_the_case_for_engineering_our_food'
p2887
S'PamelaRonald_2015'
p2888
sS'ge_wang_the_diy_orchestra_of_the_future'
p2889
S'GeWang_2014X'
p2890
sS'carter_emmart_demos_a_3d_atlas_of_the_universe'
p2891
S'CarterEmmart_2010'
p2892
sS'jakob_trollback_rethinks_the_music_video'
p2893
S'JakobTrollback_2007'
p2894
sS'matt_killingsworth_want_to_be_happier_stay_in_the_moment'
p2895
S'MattKillingsworth_2011X'
p2896
sS'andrew_solomon_depression_the_secret_we_share'
p2897
S'AndrewSolomon_2013X'
p2898
sS'gabriel_barcia_colombo_capturing_memories_in_video_art'
p2899
S'GabrielBarciaColombo_2012'
p2900
sS'kevin_bales_how_to_combat_modern_slavery'
p2901
S'KevinBales_2010'
p2902
sS'joseph_kim_the_family_i_lost_in_north_korea_and_the_family_i_gained'
p2903
S'JosephKim_2013G'
p2904
sS'theaster_gates_how_to_revive_a_neighborhood_with_imagination_beauty_and_art'
p2905
S'TheasterGates_2015'
p2906
sS'annie_murphy_paul_what_we_learn_before_we_re_born'
p2907
S'AnnieMurphyPaul_2011G'
p2908
sS'marina_abramovic_an_art_made_of_trust_vulnerability_and_connection'
p2909
S'MarinaAbramovic_2015'
p2910
sS'sam_martin_builds_a_room_of_his_own'
p2911
S'SamMartin_2009G'
p2912
sS'bill_stone_explores_the_earth_and_space'
p2913
S'BillStone_2007'
p2914
sS'kevin_briggs_the_bridge_between_suicide_and_life'
p2915
S'KevinBriggs_2014'
p2916
sS'noreena_hertz_how_to_use_experts_and_when_not_to'
p2917
S'NoreenaHertz_2010S'
p2918
sS'john_hodgman_design_explained'
p2919
S'JohnHodgman_2012'
p2920
sS'madeleine_albright_on_being_a_woman_and_a_diplomat'
p2921
S'MadeleineAlbright_2010W'
p2922
sS'stefan_sagmeister_7_rules_for_making_more_happiness'
p2923
S'StefanSagmeister_2010S'
p2924
sS'leslie_t_chang_the_voices_of_china_s_workers'
p2925
S'LeslieChang_2012G'
p2926
sS'gayle_tzemach_lemmon_meet_the_first_women_to_fight_on_the_front_lines_of_an_american_war'
p2927
S'GayleTzemachLemmon_2015W'
p2928
sS'donald_sadoway_the_missing_link_to_renewable_energy'
p2929
S'DonaldSadoway_2012'
p2930
sS'hyeonseo_lee_my_escape_from_north_korea'
p2931
S'HyeonseoLee_2013'
p2932
sS'robin_chase_excuse_me_may_i_rent_your_car'
p2933
S'RobinChase_2012G'
p2934
sS'woody_norris_invents_amazing_things'
p2935
S'WoodyNorris_2004'
p2936
sS'paul_zak_trust_morality_and_oxytocin'
p2937
S'PaulZak_2011G'
p2938
sS'david_hoffman_shares_his_sputnik_mania'
p2939
S'DavidHoffman_2007'
p2940
sS'jinsop_lee_design_for_all_5_senses'
p2941
S'JinsopLee_2013'
p2942
sS'anand_agarawala_demos_his_bumptop_desktop'
p2943
S'AnandAgarawala_2007'
p2944
sS'david_pogue_on_cool_phone_tricks'
p2945
S'DavidPogue_2008P'
p2946
sS'david_agus_a_new_strategy_in_the_war_on_cancer'
p2947
S'DavidAgus_2009P'
p2948
sS'david_birch_identity_without_a_name'
p2949
S'DavidBirch_2012X'
p2950
sS'hillel_cooperman_legos_for_grownups'
p2951
S'HillelCooperman_2010U'
p2952
sS'jonathan_haidt_humanity_s_stairway_to_self_transcendence'
p2953
S'JonathanHaidt_2012'
p2954
sS'michael_sandel_the_lost_art_of_democratic_debate'
p2955
S'MichaelSandel_2010'
p2956
sS'paul_collier_shares_4_ways_to_help_the_bottom_billion'
p2957
S'PaulCollier_2008'
p2958
sS'ed_yong_suicidal_wasps_zombie_roaches_and_other_tales_of_parasites'
p2959
S'EdYong_2014'
p2960
sS'jill_bolte_taylor_s_powerful_stroke_of_insight'
p2961
S'JillBolteTaylor_2008'
p2962
sS'vijay_kumar_robots_that_fly_and_cooperate'
p2963
S'VijayKumar_2012'
p2964
sS'lemon_andersen_performs_please_don_t_take_my_air_jordans'
p2965
S'LemonAndersen_2011Y'
p2966
sS'jedidah_isler_how_i_fell_in_love_with_quasars_blazars_and_our_incredible_universe'
p2967
S'JedidahIsler_2015U'
p2968
sS'patrick_awuah_on_educating_leaders'
p2969
S'PatrickAwuah_2007G'
p2970
sS'kiran_bedi_a_police_chief_with_a_difference'
p2971
S'KiranBedi_2010W'
p2972
sS'meron_gribetz_a_glimpse_of_the_future_through_an_augmented_reality_headset'
p2973
S'MeronGribetz_2016'
p2974
sS'aris_venetikidis_making_sense_of_maps'
p2975
S'ArisVenetikidis_2012X'
p2976
sS'lennart_green_does_close_up_card_magic'
p2977
S'LennartGreen_2005'
p2978
sS'al_gore_warns_on_latest_climate_trends'
p2979
S'AlGore_2009'
p2980
sS'jocelyne_bloch_the_brain_may_be_able_to_repair_itself_with_help'
p2981
S'JocelyneBloch_2015G'
p2982
sS'carin_bondar_the_birds_and_the_bees_are_just_the_beginning'
p2983
S'CarinBondar_2013G'
p2984
sS'barton_seaver_sustainable_seafood_let_s_get_smart'
p2985
S'BartonSeaver_2010Z'
p2986
sS'severine_autesserre_to_solve_mass_violence_look_to_locals'
p2987
S'SeverineAutesserre_2014G'
p2988
sS'linda_cliatt_wayman_how_to_fix_a_broken_school_lead_fearlessly_love_hard'
p2989
S'LindaCliattWayman_2015W'
p2990
sS'cameron_sinclair_the_refugees_of_boom_and_bust'
p2991
S'CameronSinclair_2009G'
p2992
sS'clay_shirky_how_cellphones_twitter_facebook_can_make_history'
p2993
S'ClayShirky_2009S'
p2994
sS'esther_perel_the_secret_to_desire_in_a_long_term_relationship'
p2995
S'EstherPerel_2013S'
p2996
sS'michael_rubinstein_see_invisible_motion_hear_silent_sounds_cool_creepy_we_can_t_decide'
p2997
S'MichaelRubinstein_2014X'
p2998
sS'sheila_nirenberg_a_prosthetic_eye_to_treat_blindness'
p2999
S'SheilaNirenberg_2011P'
p3000
sS'robin_morgan_4_powerful_poems_about_parkinson_s_and_growing_older'
p3001
S'RobinMorgan_2015W'
p3002
sS'esther_perel_rethinking_infidelity_a_talk_for_anyone_who_has_ever_loved'
p3003
S'EstherPerel_2015'
p3004
sS'raghava_kk_what_s_your_200_year_plan'
p3005
S'RaghavaKK_2012S'
p3006
sS'jonas_eliasson_how_to_solve_traffic_jams'
p3007
S'JonasEliasson_2012X'
p3008
sS'jonathan_trent_energy_from_floating_algae_pods'
p3009
S'JonathanTrent_2012G'
p3010
sS'ron_eglash_on_african_fractals'
p3011
S'RonEglash_2007G'
p3012
sS'leymah_gbowee_unlock_the_intelligence_passion_greatness_of_girls'
p3013
S'LeymahGbowee_2012'
p3014
sS'martin_rees_asks_is_this_our_final_century'
p3015
S'MartinRees_2005G'
p3016
sS'paula_johnson_his_and_hers_healthcare'
p3017
S'PaulaJohnson_2013W'
p3018
sS'stephen_lawler_tours_microsoft_virtual_earth'
p3019
S'StephenLawler_2007'
p3020
sS'janet_iwasa_how_animations_can_help_scientists_test_a_hypothesis'
p3021
S'JanetIwasa_2014U'
p3022
sS'drew_dudley_everyday_leadership'
p3023
S'DrewDudley_2011X'
p3024
sS'anupam_mishra_the_ancient_ingenuity_of_water_harvesting'
p3025
S'AnupamMishra_2009I'
p3026
sS'elizabeth_gilbert_on_genius'
p3027
S'ElizabethGilbert_2009'
p3028
sS'bill_gates_how_state_budgets_are_breaking_us_schools'
p3029
S'BillGates_2011U'
p3030
sS'amy_smith_shares_simple_lifesaving_design'
p3031
S'AmySmith_2006'
p3032
sS'juliana_rotich_meet_brck_internet_access_built_for_africa'
p3033
S'JulianaRotich_2013G'
p3034
sS'alain_de_botton_atheism_2_0'
p3035
S'AlaindeBotton_2011G'
p3036
sS'dyan_denapoli_the_great_penguin_rescue'
p3037
S'DyandeNapoli_2011X'
p3038
sS'bobby_ghosh_why_global_jihad_is_losing'
p3039
S'BobbyGhosh_2012X'
p3040
sS'marc_abrahams_a_science_award_that_makes_you_laugh_then_think'
p3041
S'MarcAbrahams_2014P'
p3042
sS'lisa_bu_how_books_can_open_your_mind'
p3043
S'LisaBu_2013'
p3044
sS'wolfgang_kessling_how_to_air_condition_outdoor_spaces'
p3045
S'WolfgangKessling_2012S'
p3046
sS'stefan_sagmeister_shares_happy_design'
p3047
S'StefanSagmeister_2004'
p3048
sS'erin_mckean_redefines_the_dictionary'
p3049
S'ErinMcKean_2007'
p3050
sS'arthur_benjamin_the_magic_of_fibonacci_numbers'
p3051
S'ArthurBenjamin_2013G'
p3052
sS'romina_libster_the_power_of_herd_immunity'
p3053
S'RominaLibster_2014X'
p3054
sS'paul_piff_does_money_make_you_mean'
p3055
S'PaulPiff_2013X'
p3056
sS'mary_bassett_why_your_doctor_should_care_about_social_justice'
p3057
S'MaryBassett_2015P'
p3058
sS'capt_charles_moore_on_the_seas_of_plastic'
p3059
S'CharlesMoore_2009U'
p3060
sS'9_11_healing_the_mothers_who_found_forgiveness_friendship'
p3061
S'911Mothers_2010W'
p3062
sS'roz_savage_why_i_m_rowing_across_the_pacific'
p3063
S'RozSavage_2010Z'
p3064
sS'denise_herzing_could_we_speak_the_language_of_dolphins'
p3065
S'DeniseHerzing_2013'
p3066
sS'maurizio_seracini_the_secret_lives_of_paintings'
p3067
S'MaurizioSeracini_2012G'
p3068
sS'annette_heuser_the_3_agencies_with_the_power_to_make_or_break_economies'
p3069
S'AnnetteHeuser_2013G'
p3070
sS'ben_saunders_why_bother_leaving_the_house'
p3071
S'BenSaunders_2012S'
p3072
sS'sergey_brin_and_larry_page_on_google'
p3073
S'SergeyBrin_2004'
p3074
sS'jake_barton_the_museum_of_you'
p3075
S'JakeBarton_2013S'
p3076
sS'ayah_bdeir_building_blocks_that_blink_beep_and_teach'
p3077
S'AyahBdeir_2012U'
p3078
sS'gordon_brown'
p3079
S'GordonBrown_2009G'
p3080
sS'ben_dunlap_talks_about_a_passionate_life'
p3081
S'BenDunlap_2007'
p3082
sS'ray_kurzweil_get_ready_for_hybrid_thinking'
p3083
S'RayKurzweil_2014'
p3084
sS'paola_antonelli_why_i_brought_pacman_to_moma'
p3085
S'PaolaAntonelli_2013S'
p3086
sS'eben_bayer_are_mushrooms_the_new_plastic'
p3087
S'EbenBayer_2010G'
p3088
sS'beeban_kidron_the_shared_wonder_of_film'
p3089
S'BeebanKidron_2012S'
p3090
sS'anders_fjellberg_two_nameless_bodies_washed_up_on_the_beach_here_are_their_stories'
p3091
S'AndersFjellberg_2015G'
p3092
sS'steve_howard_let_s_go_all_in_on_selling_sustainability'
p3093
S'SteveHoward_2013G'
p3094
sS'tristram_wyatt_the_smelly_mystery_of_the_human_pheromone'
p3095
S'TristramWyatt_2013X'
p3096
sS'emily_pilloton_teaching_design_for_change'
p3097
S'EmilyPilloton_2010G'
p3098
sS'beatrice_coron_stories_cut_from_paper'
p3099
S'BeatriceCoron_2011'
p3100
sS'nellie_mckay_sings_feminists_and_if_i_had_you'
p3101
S'NellieMcKay_FeministsIf_2008'
p3102
sS'jennifer_lin_improvs_piano_magic'
p3103
S'JenniferLin_2004'
p3104
sS'david_grady_how_to_save_the_world_or_at_least_yourself_from_bad_meetings'
p3105
S'DavidGrady_2013S'
p3106
sS'j_j_abrams_mystery_box'
p3107
S'JJAbrams_2007'
p3108
sS'david_brooks_should_you_live_for_your_resume_or_your_eulogy'
p3109
S'DavidBrooks_2014U'
p3110
sS'karen_tse_how_to_stop_torture'
p3111
S'KarenTse_2011G'
p3112
sS'jinha_lee_a_tool_that_lets_you_touch_pixels'
p3113
S'JinhaLee_2013'
p3114
sS'janine_di_giovanni_what_i_saw_in_the_war'
p3115
S'JaninediGiovanni_2012X'
p3116
sS'majora_carter_3_stories_of_local_ecoactivism'
p3117
S'MajoraCarter_2010X'
p3118
sS'roxane_gay_confessions_of_a_bad_feminist'
p3119
S'RoxaneGay_2015W'
p3120
sS'maysoon_zayid_i_got_99_problems_palsy_is_just_one'
p3121
S'MaysoonZayid_2013W'
p3122
sS'gary_lauder_s_new_traffic_sign_take_turns'
p3123
S'GaryLauder_2010'
p3124
sS'ryan_merkley_online_video_annotated_remixed_and_popped'
p3125
S'RyanMerkley_2012G'
p3126
sS'richard_sears_planning_for_the_end_of_oil'
p3127
S'RichardSears_2010U'
p3128
sS'shereen_el_feki_a_little_told_tale_of_sex_and_sensuality'
p3129
S'ShereenElFeki_2013G'
p3130
sS'joshua_walters_on_being_just_crazy_enough'
p3131
S'JoshuaWalters_2011S'
p3132
sS'diebedo_francis_kere_how_to_build_with_clay_and_community'
p3133
S'DiebedoFrancisKere_2013Z'
p3134
sS'yossi_vardi_fights_local_warming'
p3135
S'YossiVardi_2007'
p3136
sS'amanda_palmer_the_art_of_asking'
p3137
S'AmandaPalmer_2013'
p3138
sS'jehane_noujaim_inspires_a_global_day_of_film'
p3139
S'JehaneNoujaim_2006'
p3140
sS'jr_one_year_of_turning_the_world_inside_out'
p3141
S'JR_2012'
p3142
sS'jamie_oliver'
p3143
S'JamieOliver_2010'
p3144
sS'judy_macdonald_johnston_prepare_for_a_good_end_of_life'
p3145
S'JudyJohnston_2013U'
p3146
sS'edith_widder_how_we_found_the_giant_squid'
p3147
S'EdithWidder_2013'
p3148
sS'bono_s_call_to_action_for_africa'
p3149
S'Bono_2005'
p3150
sS'fabien_cousteau_what_i_learned_from_spending_31_days_underwater'
p3151
S'FabienCousteau_2014G'
p3152
sS'charles_limb_your_brain_on_improv'
p3153
S'CharlesLimb_2010X'
p3154
sS'peter_norvig_the_100_000_student_classroom'
p3155
S'PeterNorvig_2012U'
p3156
sS'catherine_mohr_surgery_s_past_present_and_robotic_future'
p3157
S'CatherineMohr_2009'
p3158
sS'geoffrey_canada_our_failing_schools_enough_is_enough'
p3159
S'GeoffreyCanada_2013S'
p3160
sS'ashraf_ghani_on_rebuilding_broken_states'
p3161
S'AshrafGhani_2005G'
p3162
sS'richard_dawkins_on_our_queer_universe'
p3163
S'RichardDawkins_2005G'
p3164
sS'peter_tyack_the_intriguing_sound_of_marine_mammals'
p3165
S'PeterTyack_2010Z'
p3166
sS'alison_killing_there_s_a_better_way_to_die_and_architecture_can_help'
p3167
S'AlisonKilling_2014U'
p3168
sS'rory_sutherland_sweat_the_small_stuff'
p3169
S'RorySutherland_2010S'
p3170
sS'saki_mafundikwa_ingenuity_and_elegance_in_ancient_african_alphabets'
p3171
S'SakiMafundikwa_2013'
p3172
sS'jeremy_kasdin_the_flower_shaped_starshade_that_might_help_us_detect_earth_like_planets'
p3173
S'JeremyKasdin_2014'
p3174
sS'paul_gilding_the_earth_is_full'
p3175
S'PaulGilding_2012'
p3176
sS'colin_stokes_how_movies_teach_manhood'
p3177
S'ColinStokes_2012X'
p3178
sS'marlene_zuk_what_we_learn_from_insects_kinky_sex_lives'
p3179
S'MarleneZuk_2015W'
p3180
sS'janna_levin_the_sound_the_universe_makes'
p3181
S'JannaLevin_2011'
p3182
sS'carlo_ratti_architecture_that_senses_and_responds'
p3183
S'CarloRatti_2011'
p3184
sS'john_maeda_on_the_simple_life'
p3185
S'JohnMaeda_2007'
p3186
sS'miwa_matreyek_s_glorious_visions'
p3187
S'MiwaMatreyek_2010G'
p3188
sS'karen_armstrong_let_s_revive_the_golden_rule'
p3189
S'KarenArmstrong_2009G'
p3190
sS'van_jones_the_economic_injustice_of_plastic'
p3191
S'VanJones_2010X'
p3192
sS'melissa_fleming_a_boat_carrying_500_refugees_sunk_at_sea_the_story_of_two_survivors'
p3193
S'MelissaFleming_2015X'
p3194
sS'philip_howard'
p3195
S'PhilipHoward_2010'
p3196
sS'noel_bairey_merz_the_single_biggest_health_threat_women_face'
p3197
S'NoelMerz_2011X'
p3198
sS'khalida_brohi_how_i_work_to_protect_women_from_honor_killings'
p3199
S'KhalidaBrohi_2014G'
p3200
sS'richard_st_john_success_is_a_continuous_journey'
p3201
S'RichardStJohn_2009U'
p3202
sS'hans_rosling_and_the_magic_washing_machine'
p3203
S'HansRosling_2010W'
p3204
sS'melinda_gates_let_s_put_birth_control_back_on_the_agenda'
p3205
S'MelindaGates_2012X'
p3206
sS'kevin_kelly_on_how_technology_evolves'
p3207
S'KevinKelly_2005'
p3208
sS'norman_spack_how_i_help_transgender_teens_become_who_they_want_to_be'
p3209
S'NormanSpack_2013X'
p3210
sS'melati_and_isabel_wijsen_our_campaign_to_ban_plastic_bags_in_bali'
p3211
S'MelatiWijsen_2015G'
p3212
sS'neri_oxman_design_at_the_intersection_of_technology_and_biology'
p3213
S'NeriOxman_2015'
p3214
sS'shukla_bose_teaching_one_child_at_a_time'
p3215
S'ShuklaBose_2009I'
p3216
sS'stephen_palumbi_following_the_mercury_trail'
p3217
S'StephenPalumbi_2010Z'
p3218
sS'sarah_jones_as_a_one_woman_global_village'
p3219
S'SarahJones_2009'
p3220
sS'francesco_sauro_deep_under_the_earth_s_surface_discovering_beauty_and_science'
p3221
S'FrancescoSauro_2015G'
p3222
sS'ron_finley_a_guerilla_gardener_in_south_central_la'
p3223
S'RonFinley_2013'
p3224
sS'beth_noveck_demand_a_more_open_source_government'
p3225
S'BethNoveck_2012G'
p3226
sS'amos_winter_the_cheap_all_terrain_wheelchair'
p3227
S'AmosWinter_2012X'
p3228
sS'mick_ebeling_the_invention_that_unlocked_a_locked_in_artist'
p3229
S'MickEbeling_2011A'
p3230
sS'pavan_sukhdev_what_s_the_price_of_nature'
p3231
S'PavanSukhdev_2011G'
p3232
sS'julian_treasure_the_4_ways_sound_affects_us'
p3233
S'JulianTreasure_2009G'
p3234
sS'a_ted_speaker_s_worst_nightmare'
p3235
S'ColinRobertson_2012'
p3236
sS'jon_mooallem_the_strange_story_of_the_teddy_bear_and_what_it_reveals_about_our_relationship_to_animals'
p3237
S'JonMooallem_2014'
p3238
sS'margaret_gould_stewart_how_giant_websites_design_for_you_and_a_billion_others_too'
p3239
S'MargaretStewart_2014'
p3240
sS'neil_turok_makes_his_ted_prize_wish'
p3241
S'NeilTurok_2008'
p3242
sS'neil_harbisson_i_listen_to_color'
p3243
S'NeilHarbisson_2012G'
p3244
sS'tim_harford'
p3245
S'TimHarford_2011G'
p3246
sS'lalitesh_katragadda_making_maps_to_fight_disaster_build_economies'
p3247
S'LaliteshKatragadda_2009I'
p3248
sS'deborah_gordon_what_ants_teach_us_about_the_brain_cancer_and_the_internet'
p3249
S'DeborahGordon_2014'
p3250
sS'robert_waldinger_what_makes_a_good_life_lessons_from_the_longest_study_on_happiness'
p3251
S'RobertWaldinger_2015X'
p3252
sS'ziauddin_yousafzai_my_daughter_malala'
p3253
S'ZiauddinYousafzai_2014'
p3254
sS'mick_cornett_how_an_obese_town_lost_a_million_pounds'
p3255
S'MickCornett_2013P'
p3256
sS'ahn_trio_a_modern_take_on_piano_violin_cello'
p3257
S'TheAhnTrio_2010W'
p3258
sS'steven_pinker_on_language_and_thought'
p3259
S'StevenPinker_2005G'
p3260
sS'dean_kamen_previews_a_new_prosthetic_arm'
p3261
S'DeanKamen_2007'
p3262
sS'teenaged_boy_wonders_play_bluegrass'
p3263
S'SleepyManBanjoBoys_2012S'
p3264
sS'peter_molyneux_demos_milo_the_virtual_boy'
p3265
S'PeterMolyneux_2010G'
p3266
sS'brian_cox_on_cern_s_supercollider'
p3267
S'BrianCox_2008'
p3268
sS'frederic_kaplan_how_i_built_an_information_time_machine'
p3269
S'FredericKaplan_2013X'
p3270
sS'ken_jennings_watson_jeopardy_and_me_the_obsolete_know_it_all'
p3271
S'KenJennings_2013X'
p3272
sS'martin_villeneuve_how_i_made_an_impossible_film'
p3273
S'MartinVilleneuve_2013'
p3274
sS'paul_bloom_the_origins_of_pleasure'
p3275
S'PaulBloom_2011G'
p3276
sS'bruce_aylward_humanity_vs_ebola_the_winning_strategies_in_a_terrifying_war'
p3277
S'BruceAylward_2014X'
p3278
sS'greg_stone_saving_the_ocean_one_island_at_a_time'
p3279
S'GregStone_2010Z'
p3280
sS'adam_garone_healthier_men_one_moustache_at_a_time'
p3281
S'AdamGarone_2011X'
p3282
sS'ilona_szabo_de_carvalho_4_lessons_i_learned_from_taking_a_stand_against_drugs_and_gun_violence'
p3283
S'IlonaSzabodeCarvalho_2014G'
p3284
sS'drew_berry_animations_of_unseeable_biology'
p3285
S'DrewBerry_2011X'
p3286
sS'julia_sweeney_has_the_talk'
p3287
S'JuliaSweeney_2010'
p3288
sS'genevieve_von_petzinger_why_are_these_32_symbols_found_in_ancient_caves_all_over_europe'
p3289
S'GenevievevonPetzinger_2015F'
p3290
sS'lian_pin_koh_a_drone_s_eye_view_of_conservation'
p3291
S'LianPinKoh_2013G'
p3292
sS'hans_and_ola_rosling_how_not_to_be_ignorant_about_the_world'
p3293
S'HansRosling_2014S'
p3294
sS'glenn_greenwald_why_privacy_matters'
p3295
S'GlennGreenwald_2014G'
p3296
sS'jay_silver_hack_a_banana_make_a_keyboard'
p3297
S'JaySilver_2013S'
p3298
sS'camille_seaman_photos_from_a_storm_chaser'
p3299
S'CamilleSeaman_2013'
p3300
sS'matt_ridley_when_ideas_have_sex'
p3301
S'MattRidley_2010G'
p3302
sS'eric_mead_the_magic_of_the_placebo'
p3303
S'EricMead_2009P'
p3304
sS'carl_schoonover_how_to_look_inside_the_brain'
p3305
S'CarlSchoonover_2012U'
p3306
sS'phil_plait_how_to_defend_earth_from_asteroids'
p3307
S'PhilPlait_2011X'
p3308
sS'dan_cobley_what_physics_taught_me_about_marketing'
p3309
S'DanCobley_2010G'
p3310
sS'tania_luna_how_a_penny_made_me_feel_like_a_millionaire'
p3311
S'TaniaLuna_2012S'
p3312
sS'ajit_narayanan_a_word_game_to_communicate_in_any_language'
p3313
S'AjitNarayanan_2013'
p3314
sS'sebastian_junger_why_veterans_miss_war'
p3315
S'SebastianJunger_2014S'
p3316
sS'daniele_quercia_happy_maps'
p3317
S'DanieleQuercia_2014S'
p3318
sS'julia_sweeney_on_letting_go_of_god'
p3319
S'JuliaSweeney_2006'
p3320
sS'sir_ken_robinson_bring_on_the_revolution'
p3321
S'SirKenRobinson_2010'
p3322
sS'dan_phillips_creative_houses_from_reclaimed_stuff'
p3323
S'DanPhillips_2010X'
p3324
sS'mark_forsyth_what_s_a_snollygoster_a_short_lesson_in_political_speak'
p3325
S'MarkForsyth_2012X'
p3326
sS'paul_sereno_digs_up_dinosaurs'
p3327
S'PaulSereno_2005'
p3328
sS'caitria_and_morgan_o_neill_how_to_step_up_in_the_face_of_disaster'
p3329
S'CaitriaONeill_2012X'
p3330
sS'samantha_power_on_a_complicated_hero'
p3331
S'SamanthaPower_2008'
p3332
sS'abe_davis_new_video_technology_that_reveals_an_object_s_hidden_properties'
p3333
S'AbeDavis_2015'
p3334
sS'jessica_shortall_how_america_fails_new_parents_and_their_babies'
p3335
S'JessicaShortall_2015X'
p3336
sS'bunker_roy'
p3337
S'BunkerRoy_2011G'
p3338
sS'bill_gross_on_new_energy'
p3339
S'BillGross_2003'
p3340
sS'sarah_lewis_embrace_the_near_win'
p3341
S'SarahLewis_2014'
p3342
sS'regina_hartley_why_the_best_hire_might_not_have_the_perfect_resume'
p3343
S'ReginaHartley_2015S'
p3344
sS'michael_green_how_we_can_make_the_world_a_better_place_by_2030'
p3345
S'MichaelGreen_2015G'
p3346
sS'gero_miesenboeck'
p3347
S'GeroMiesenboeck_2010G'
p3348
sS'christopher_deam_restyles_the_airstream'
p3349
S'ChristopherDeam_2002'
p3350
sS'golan_levin_ted2009'
p3351
S'GolanLevin_2009'
p3352
sS'siddhartha_mukherjee_soon_we_ll_cure_diseases_with_a_cell_not_a_pill'
p3353
S'SiddharthaMukherjee_2015'
p3354
sS'tom_chatfield_7_ways_games_reward_the_brain'
p3355
S'TomChatfield_2010G'
p3356
sS'georgette_mulheir_the_tragedy_of_orphanages'
p3357
S'GeorgetteMulheir_2012S'
p3358
sS'imogen_heap_wait'
p3359
S'ImogenHeap_WaitItOut_2009G'
p3360
sS'anote_tong_my_country_will_be_underwater_soon_unless_we_work_together'
p3361
S'AnoteTong_2015Z'
p3362
sS'mary_robinson_why_climate_change_is_a_threat_to_human_rights'
p3363
S'MaryRobinson_2015W'
p3364
sS'charmian_gooch_meet_global_corruption_s_hidden_players'
p3365
S'CharmianGooch_2013G'
p3366
sS'amory_lovins_on_winning_the_oil_endgame'
p3367
S'AmoryLovins_2005'
p3368
sS'rich_benjamin_my_road_trip_through_the_whitest_towns_in_america'
p3369
S'RichBenjamin_2015W'
p3370
sS'dennis_hong_making_a_car_for_blind_drivers'
p3371
S'DennisHong_2011'
p3372
sS'krista_donaldson_the_80_prosthetic_knee_that_s_changing_lives'
p3373
S'KristaDonaldson_2013W'
p3374
sS'nina_tandon_could_tissue_engineering_mean_personalized_medicine'
p3375
S'NinaTandon_2012G'
p3376
sS'richard_turere_a_peace_treaty_with_the_lions'
p3377
S'RichardTurere_2013'
p3378
sS'daniel_levitin_how_to_stay_calm_when_you_know_you_ll_be_stressed'
p3379
S'DanielLevitin_2015G'
p3380
sS'nancy_kanwisher_the_brain_is_a_swiss_army_knife'
p3381
S'NancyKanwisher_2014'
p3382
sS'rachel_armstrong_architecture_that_repairs_itself'
p3383
S'RachelArmstrong_2009G'
p3384
sS'toys_from_the_future'
p3385
S'ZachKaplan_2005'
p3386
sS'fred_jansen_how_to_land_on_a_comet'
p3387
S'FredJansen_2015'
p3388
sS'joachim_de_posada_says_don_t_eat_the_marshmallow_yet'
p3389
S'JoachimdePosada_2009U'
p3390
sS'rob_reid_the_8_billion_ipod'
p3391
S'RobReid_2012'
p3392
sS'nick_bostrom_on_our_biggest_problems'
p3393
S'NickBostrom_2005G'
p3394
sS'al_seckel_says_our_brains_are_mis_wired'
p3395
S'AlSeckel_2004'
p3396
sS'antonio_guterres_refugees_have_the_right_to_be_protected'
p3397
S'AntonioGuterres_2015G'
p3398
sS'marco_tempest_the_magic_of_truth_and_lies_on_ipods'
p3399
S'MarcoTempest_2011G'
p3400
sS'evan_williams_on_listening_to_twitter_users'
p3401
S'EvanWilliams_2009'
p3402
sS'matt_mills_image_recognition_that_triggers_augmented_reality'
p3403
S'MattMills_2012G'
p3404
sS'caleb_harper_this_computer_will_grow_your_food_in_the_future'
p3405
S'CalebHarper_2015G'
p3406
sS'taylor_wilson_yup_i_built_a_nuclear_fusion_reactor'
p3407
S'TaylorWilson_2012'
p3408
sS'scott_dinsmore_how_to_find_work_you_love'
p3409
S'ScottDinsmore_2012X'
p3410
sS'rajiv_maheswaran_the_math_behind_basketball_s_wildest_moves'
p3411
S'RajivMaheswaran_2015'
p3412
sS'josh_luber_the_secret_sneaker_market_and_why_it_matters'
p3413
S'JoshLuber_2015S'
p3414
sS'they_might_be_giants_play_at_8_30_am'
p3415
S'TheyMightBeGiants_2007'
p3416
sS'eric_dishman_health_care_should_be_a_team_sport'
p3417
S'EricDishman_2013S'
p3418
sS'dave_troy_social_maps_that_reveal_a_city_s_intersections_and_separations'
p3419
S'DaveTroy_2014U'
p3420
sS'johanna_blakley_social_media_and_the_end_of_gender'
p3421
S'JohannaBlakley_2010W'
p3422
sS'tim_berners_lee_a_magna_carta_for_the_web'
p3423
S'TimBernersLee_2014U'
p3424
sS'laura_snyder_the_philosophical_breakfast_club'
p3425
S'LauraSnyder_2012G'
p3426
sS'suzanne_lee_grow_your_own_clothes'
p3427
S'SuzanneLee_2011U'
p3428
sS'james_forbes'
p3429
S'JamesForbes_2009P'
p3430
sS'the_inspiration_of_second_life'
p3431
S'PhilipRosedale_2008P'
p3432
sS'joe_sabia_the_technology_of_storytelling'
p3433
S'JoeSabia_2011S'
p3434
sS'helen_fisher_studies_the_brain_in_love'
p3435
S'HelenFisher_2008'
p3436
sS'alison_killing_what_happens_when_a_city_runs_out_of_room_for_its_dead'
p3437
S'AlisonKilling_2014X'
p3438
sS'shirin_neshat_art_in_exile'
p3439
S'ShirinNeshat_2010W'
p3440
sS'benoit_mandelbrot_fractals_the_art_of_roughness'
p3441
S'BenoitMandelbrot_2010'
p3442
sS'what_we_learned_from_5_million_books'
p3443
S'ErezLiebermanAiden_2011X'
p3444
sS'allison_hunt_gets_a_new_hip'
p3445
S'AllisonHunt_2007'
p3446
sS'enric_sala'
p3447
S'EnricSala_2010Z'
p3448
sS'will_wright_makes_toys_that_make_worlds'
p3449
S'WillWright_2007'
p3450
sS'jennifer_senior_for_parents_happiness_is_a_very_high_bar'
p3451
S'JenniferSenior_2014'
p3452
sS'raghava_kk_five_lives_of_an_artist'
p3453
S'RaghavaKK_2010'
p3454
sS'bjorn_lomborg_sets_global_priorities'
p3455
S'BjornLomborg_2005'
p3456
sS'jenna_mccarthy_what_you_don_t_know_about_marriage'
p3457
S'JennaMcCarthy_2011X'
p3458
sS'eduardo_paes_the_4_commandments_of_cities'
p3459
S'EduardoPaes_2012'
p3460
sS'celeste_headlee_10_ways_to_have_a_better_conversation'
p3461
S'CelesteHeadlee_2015X'
p3462
sS'lessig_nyed'
p3463
S'LawrenceLessig_2010X'
p3464
sS'ben_goldacre_what_doctors_don_t_know_about_the_drugs_they_prescribe'
p3465
S'BenGoldacre_2012P'
p3466
sS'shimpei_takahashi_play_this_game_to_come_up_with_original_ideas'
p3467
S'ShimpeiTakahashi_2013X'
p3468
sS'marian_bantjes_intricate_beauty_by_design'
p3469
S'MarianBantjes_2010'
p3470
sS'pamelia_kurstin_plays_the_theremin'
p3471
S'PameliaKurstin_2002'
p3472
sS'judson_brewer_a_simple_way_to_break_a_bad_habit'
p3473
S'JudsonBrewer_2015P'
p3474
sS'ellen_dunham_jones_retrofitting_suburbia'
p3475
S'EllenDunhamJones_2010X'
p3476
sS'steven_wise_chimps_have_feelings_and_thoughts_they_should_also_have_rights'
p3477
S'StevenWise_2015'
p3478
sS'angela_lee_duckworth_the_key_to_success_grit'
p3479
S'AngelaDuckworth_2013S'
p3480
sS'john_wooden_on_the_difference_between_winning_and_success'
p3481
S'JohnWooden_2001'
p3482
sS'amy_purdy_living_beyond_limits'
p3483
S'AmyPurdy_2011X'
p3484
sS'taryn_simon_the_stories_behind_the_bloodlines'
p3485
S'TarynSimon_2011S'
p3486
sS'dan_pink_on_motivation'
p3487
S'DanielPink_2009G'
p3488
sS'david_rockwell_builds_at_ground_zero'
p3489
S'DavidRockwell_2002'
p3490
sS'bruce_aylward_how_we_ll_stop_polio'
p3491
S'BruceAylward_2011'
p3492
sS'kwabena_boahen_on_a_computer_that_works_like_the_brain'
p3493
S'KwabenaBoahen_2007G'
p3494
sS'jim_toomey_learning_from_sherman_the_shark'
p3495
S'JimToomey_2010Z'
p3496
sS'nathan_wolfe_what_s_left_to_explore'
p3497
S'NathanWolfe_2012U'
p3498
sS'edward_burtynsky_photographs_the_landscape_of_oil'
p3499
S'EdwardBurtynsky_2009G'
p3500
sS'wade_davis_on_endangered_cultures'
p3501
S'WadeDavis_2003'
p3502
sS'david_gallo_shows_underwater_astonishments'
p3503
S'DavidGallo_2007'
p3504
sS'mark_shaw_one_very_dry_demo'
p3505
S'MarkShaw_2013'
p3506
sS'frans_lanting_s_lyrical_nature_photos'
p3507
S'FransLanting_2005'
p3508
sS'nathaniel_kahn_on_my_architect'
p3509
S'NathanielKahn_2002'
p3510
sS'lesley_hazelton_on_reading_the_koran'
p3511
S'LesleyHazleton_2010X'
p3512
sS'sarah_parcak_archeology_from_space'
p3513
S'SarahParcak_2012U'
p3514
sS'mihaly_csikszentmihalyi_on_flow'
p3515
S'MihalyCsikszentmihalyi_2004'
p3516
sS'sebastian_thrun_google_s_driverless_car'
p3517
S'SebastianThrun_2011'
p3518
sS'erik_schlangen_a_self_healing_asphalt'
p3519
S'ErikSchlangen_2012X'
p3520
sS'mitch_resnick_let_s_teach_kids_to_code'
p3521
S'MitchResnick_2012X'
p3522
sS'michael_hansmeyer_building_unimaginable_shapes'
p3523
S'MichaelHansmeyer_2012G'
p3524
sS'ismael_nazario_what_i_learned_as_a_kid_in_jail'
p3525
S'IsmaelNazario_2014X'
p3526
sS'bob_mankoff_anatomy_of_a_new_yorker_cartoon'
p3527
S'BobMankoff_2013S'
p3528
sS'uri_alon_why_truly_innovative_science_demands_a_leap_into_the_unknown'
p3529
S'UriAlon_2013G'
p3530
sS'siyanda_mohutsiwa_how_young_africans_found_a_voice_on_twitter'
p3531
S'SiyandaMohutsiwa_2016'
p3532
sS'dan_barasch_a_park_underneath_the_hustle_and_bustle_of_new_york_city'
p3533
S'DanBarasch_2014S'
p3534
sS'gayle_tzemach_lemmon_women_entrepreneurs_example_not_exception'
p3535
S'GayleLemmon_2011X'
p3536
sS'alan_eustace_i_leapt_from_the_stratosphere_here_s_how_i_did_it'
p3537
S'AlanEustace_2015'
p3538
sS'kevin_breel_confessions_of_a_depressed_comic'
p3539
S'KevinBreel_2013X'
p3540
sS'sarah_jones_what_does_the_future_hold_11_characters_offer_quirky_answers'
p3541
S'SarahJones_2014'
p3542
sS'fiorenzo_omenetto_silk_the_ancient_material_of_the_future'
p3543
S'FioOmenetto_2011'
p3544
sS'danny_hillis_the_internet_could_crash_we_need_a_plan_b'
p3545
S'DannyHillis_2013'
p3546
sS'jimmy_wales_on_the_birth_of_wikipedia'
p3547
S'JimmyWales_2005G'
p3548
sS'timothy_bartik_the_economic_case_for_preschool'
p3549
S'TimothyBartik_2012X'
p3550
sS'simon_lewis_don_t_take_consciousness_for_granted'
p3551
S'SimonLewis_2010P'
p3552
sS'charity_tilleman_dick_singing_after_a_double_lung_transplant'
p3553
S'CharityTillemannDick_2010P'
p3554
sS'anthony_atala_growing_organs_engineering_tissue'
p3555
S'AnthonyAtala_2009P'
p3556
sS'ravin_agrawal_10_young_indian_artists_to_watch'
p3557
S'RavinAgrawal_2009I'
p3558
sS'chimamanda_adichie_the_danger_of_a_single_story'
p3559
S'ChimamandaAdichie_2009G'
p3560
sS'jeff_hawkins_on_how_brain_science_will_change_computing'
p3561
S'JeffHawkins_2003'
p3562
sS'bryan_stevenson_we_need_to_talk_about_an_injustice'
p3563
S'BryanStevenson_2012'
p3564
sS'ursus_wehrli_tidies_up_art'
p3565
S'UrsusWehrli_2006'
p3566
sS'richard_dawkins_on_militant_atheism'
p3567
S'RichardDawkins_2002'
p3568
sS'tom_wujec_got_a_wicked_problem_first_tell_me_how_you_make_toast'
p3569
S'TomWujec_2013G'
p3570
sS'sonia_shah_3_reasons_we_still_haven_t_gotten_rid_of_malaria'
p3571
S'SoniaShah_2013G'
p3572
sS'guy_hoffman_robots_with_soul'
p3573
S'GuyHoffman_2013X'
p3574
sS'chris_jordan_pictures_some_shocking_stats'
p3575
S'ChrisJordan_2008'
p3576
sS'kenneth_cukier_big_data_is_better_data'
p3577
S'KennethCukier_2014S'
p3578
sS'dean_kamen_on_inventing_and_giving'
p3579
S'DeanKamen_2002'
p3580
sS'graham_hawkes_flies_through_the_ocean'
p3581
S'GrahamHawkes_2005'
p3582
sS'nathan_myhrvold_could_this_laser_zap_malaria'
p3583
S'NathanMyhrvold_2010'
p3584
sS'steve_truglia_a_leap_from_the_edge_of_space'
p3585
S'SteveTruglia_2009G'
p3586
sS'jamie_bartlett_how_the_mysterious_dark_net_is_going_mainstream'
p3587
S'JamieBartlett_2015G'
p3588
sS'melinda_french_gates_what_nonprofits_can_learn_from_coca_cola'
p3589
S'MelindaGates_2010X'
p3590
sS'erica_frenkel_the_universal_anesthesia_machine'
p3591
S'EricaFrenkel_2011X'
p3592
sS'michael_moschen_juggles_rhythm_and_motion'
p3593
S'MichaelMoschen_2002'
p3594
sS'toby_eccles_invest_in_social_change'
p3595
S'TobyEccles_2013G'
p3596
sS'becky_blanton_the_year_i_was_homeless'
p3597
S'BeckyBlanton_2009G'
p3598
sS'stephen_coleman_the_moral_dangers_of_non_lethal_weapons'
p3599
S'StephenColeman_2011X'
p3600
sS'aparna_rao_high_tech_art_with_a_sense_of_humor'
p3601
S'AparnaRao_2011G'
p3602
sS'susan_cain_the_power_of_introverts'
p3603
S'SusanCain_2012'
p3604
sS'jon_nguyen_tour_the_solar_system_from_home'
p3605
S'JonNguyen_2011X'
p3606
sS'mandy_len_catron_falling_in_love_is_the_easy_part'
p3607
S'MandyLenCatron_2015X'
p3608
sS'paul_collier_s_new_rules_for_rebuilding_a_broken_nation'
p3609
S'PaulCollier_2009S'
p3610
sS'louise_leakey_digs_for_humanity_s_origins'
p3611
S'LouiseLeakey_2008'
p3612
sS'ethan_zuckerman'
p3613
S'EthanZuckerman_2010G'
p3614
sS'fei_fei_li_how_we_re_teaching_computers_to_understand_pictures'
p3615
S'FeiFeiLi_2015'
p3616
sS'brewster_kahle_builds_a_free_digital_library'
p3617
S'BrewsterKahle_2007P'
p3618
sS'henry_markram_supercomputing_the_brain_s_secrets'
p3619
S'HenryMarkram_2009G'
p3620
sS'irwin_redlener_warns_of_nuclear_terrorism'
p3621
S'IrwinRedlener_2008'
p3622
sS'james_b_glattfelder_who_controls_the_world'
p3623
S'JamesBGlattfelder_2012X'
p3624
sS'david_logan_on_tribal_leadership'
p3625
S'DavidLogan_2009'
p3626
sS'dame_stephanie_shirley_why_do_ambitious_women_have_flat_heads'
p3627
S'DameStephanieShirley_2015'
p3628
sS'christopher_soghoian_a_brief_history_of_phone_wiretapping_and_how_to_avoid_it'
p3629
S'ChristopherSoghoian_2015U'
p3630
sS'nicholas_negroponte_on_one_laptop_per_child_two_years_on'
p3631
S'NicholasNegroponte_2007P'
p3632
sS'shimon_schocken_s_rides_of_hope'
p3633
S'ShimonSchocken_2010X'
p3634
sS'suzanne_talhouk_don_t_kill_your_language'
p3635
S'SuzanneTalhouk_2012X'
p3636
sS'george_smoot_on_the_design_of_the_universe'
p3637
S'GeorgeSmoot_2008P'
p3638
sS'amanda_bennett_a_heroic_narrative_for_letting_go'
p3639
S'AmandaBennett_2013P'
p3640
sS'margaret_heffernan_why_it_s_time_to_forget_the_pecking_order_at_work'
p3641
S'MargaretHeffernan_2015W'
p3642
sS'anders_ynnerman_visualizing_the_medical_data_explosion'
p3643
S'AndersYnnerman_2010X'
p3644
sS'murray_gell_mann_on_the_ancestor_of_language'
p3645
S'MurrayGellMann_Language_2007'
p3646
sS'james_howard_kunstler_dissects_suburbia'
p3647
S'JamesHowardKunstler_2004'
p3648
sS'frans_lanting_photos_that_give_voice_to_the_animal_kingdom'
p3649
S'FransLanting_2014'
p3650
sS'alice_bows_larkin_we_re_too_late_to_prevent_climate_change_here_s_how_we_adapt'
p3651
S'AliceBowsLarkin_2015G'
p3652
sS'allan_adams_what_the_discovery_of_gravitational_waves_means'
p3653
S'AllanAdams_2016'
p3654
sS'alyson_mcgregor_why_medicine_often_has_dangerous_side_effects_for_women'
p3655
S'AlysonMcGregor_2014X'
p3656
sS'dame_ellen_macarthur_the_surprising_thing_i_learned_sailing_solo_around_the_world'
p3657
S'DameEllenMacArthur_2015'
p3658
sS'jason_decaires_taylor_an_underwater_art_museum_teeming_with_life'
p3659
S'JasondeCairesTaylor_2015Z'
p3660
sS'elora_hardy_magical_houses_made_of_bamboo'
p3661
S'EloraHardy_2015'
p3662
sS'chris_hadfield_what_i_learned_from_going_blind_in_space'
p3663
S'ChrisHadfield_2014'
p3664
sS'louie_schwartzberg_the_hidden_beauty_of_pollination'
p3665
S'LouieSchwartzberg_2011U'
p3666
sS'tom_thum_the_orchestra_in_my_mouth'
p3667
S'TomThum_2013X'
p3668
sS'neil_gershenfeld_on_fab_labs'
p3669
S'NeilGershenfeld_2006'
p3670
sS'tan_le_my_immigration_story'
p3671
S'TanLe_2011X'
p3672
sS'george_takei_why_i_love_a_country_that_once_betrayed_me'
p3673
S'GeorgeTakei_2014X'
p3674
sS'geoff_mulgan_a_short_intro_to_the_studio_school'
p3675
S'GeoffMulgan_2011G'
p3676
sS'ziyah_gafic_everyday_objects_tragic_histories'
p3677
S'ZiyahGafic_2014U'
p3678
sS'melissa_marshall_talk_nerdy_to_me'
p3679
S'MelissaMarshall_2012G'
p3680
sS'ralph_langner_cracking_stuxnet_a_21st_century_cyberweapon'
p3681
S'RalphLangner_2011'
p3682
sS'boniface_mwangi_boniface_mwangi_the_day_i_stood_up_alone'
p3683
S'BonifaceMwangi_2014U'
p3684
sS'joel_levine'
p3685
S'JoelLevine_2009X'
p3686
sS'reuben_margolin_sculpting_waves_in_wood_and_time'
p3687
S'ReubenMargolin_2012'
p3688
sS'nadine_burke_harris_how_childhood_trauma_affects_health_across_a_lifetime'
p3689
S'NadineBurkeHarris_2014P'
p3690
sS'bran_ferren_to_create_for_the_ages_let_s_combine_art_and_engineering'
p3691
S'BranFerren_2014'
p3692
sS'bill_gross_the_single_biggest_reason_why_startups_succeed'
p3693
S'BillGross_2015U'
p3694
sS'mohamed_hijri_a_simple_solution_to_the_coming_phosphorus_crisis'
p3695
S'MohamedHijiri_2013X'
p3696
sS'sting_how_i_started_writing_songs_again'
p3697
S'Sting_2014'
p3698
sS'pistol'
p3699
S'ThomasDolby_2010'
p3700
sS'charles_anderson_discovers_dragonflies_that_cross_oceans'
p3701
S'CharlesAnderson_2009I'
p3702
sS'colin_powell_kids_need_structure'
p3703
S'ColinPowell_2012X'
p3704
sS'diana_laufenberg_3_ways_to_teach'
p3705
S'DianaLaufenberg_2010X'
p3706
sS'thomas_barnett_draws_a_new_map_for_peace'
p3707
S'ThomasBarnett_2005'
p3708
sS'mitchell_besser_mothers_helping_mothers_fight_hiv'
p3709
S'MitchellBesser_2010G'
p3710
sS'shashi_tharoor'
p3711
S'ShashiTharoor_2009I'
p3712
sS'alastair_parvin_architecture_for_the_people_by_the_people'
p3713
S'AlastairParvin_2013'
p3714
sS'aparna_rao_art_that_craves_your_attention'
p3715
S'AparnaRao_2013U'
p3716
sS'barry_schwartz_on_the_paradox_of_choice'
p3717
S'BarrySchwartz_2005G'
p3718
sS'dan_ariely_how_equal_do_we_want_the_world_to_be_you_d_be_surprised'
p3719
S'DanAriely_2015U'
p3720
sS'thomas_dolby_and_rachelle_garniez'
p3721
S'ThomasDolby_LaVieenRose_2004'
p3722
sS'harald_haas_wireless_data_from_every_light_bulb'
p3723
S'HaraldHaas_2011G'
p3724
sS'steven_strogatz_on_sync'
p3725
S'StevenStrogatz_2004'
p3726
sS'arthur_ganson_makes_moving_sculpture'
p3727
S'ArthurGanson_2004'
p3728
sS'paul_kemp_robertson_bitcoin_sweat_tide_meet_the_future_of_branded_currency'
p3729
S'PaulKempRobertson_2013G'
p3730
sS'deborah_scranton_on_her_war_tapes'
p3731
S'DeborahScranton_2007'
p3732
sS'steven_johnson_where_good_ideas_come_from'
p3733
S'StevenJohnson_2010G'
p3734
sS'ellen_gustafson_obesity_hunger_1_global_food_issue'
p3735
S'EllenGustafson_2010X'
p3736
sS'bruno_maisonnier_dance_tiny_robots'
p3737
S'BrunoMaisonnier_2012X'
p3738
sS'heather_knight_silicon_based_comedy'
p3739
S'HeatherKnight_2010W'
p3740
sS'esta_soler_how_we_turned_the_tide_on_domestic_violence_hint_the_polaroid_helped'
p3741
S'EstaSoler_2013W'
p3742
sS'jared_diamond_how_societies_can_grow_old_better'
p3743
S'JaredDiamond_2013'
p3744
sS'neil_burgess_how_your_brain_tells_you_where_you_are'
p3745
S'NeilBurgess_2011S'
p3746
sS'omar_ahmad_political_change_with_pen_and_paper'
p3747
S'OmarAhmad_2010U'
p3748
sS'dan_barber_how_i_fell_in_love_with_a_fish'
p3749
S'DanBarber_2010'
p3750
sS'kaki_king_a_musical_escape_into_a_world_of_light_and_color'
p3751
S'KakiKing_2015W'
p3752
sS'andres_ruzo_how_i_found_a_mythical_boiling_river_in_the_amazon'
p3753
S'AndresRuzo_2014G'
p3754
sS'ian_ritchie_the_day_i_turned_down_tim_berners_lee'
p3755
S'IanRitchie_2011G'
p3756
sS'jack_choi_on_the_virtual_dissection_table'
p3757
S'JackChoi_2012'
p3758
sS'tyler_dewitt_hey_science_teachers_make_it_fun'
p3759
S'TylerDeWitt_2012X'
p3760
sS'auke_ijspeert_a_robot_that_runs_and_swims_like_a_salamander'
p3761
S'AukeIjspeert_2015G'
p3762
sS'susan_lim'
p3763
S'SusanLim_2010P'
p3764
sS'amit_sood_building_a_museum_of_museums_on_the_web'
p3765
S'AmitSood_2011'
p3766
sS'jamie_heywood_the_big_idea_my_brother_inspired'
p3767
S'JamieHeywood_2009P'
p3768
sS'johann_hari_everything_you_think_you_know_about_addiction_is_wrong'
p3769
S'JohannHari_2015G'
p3770
sS'a_j_jacobs_year_of_living_biblically'
p3771
S'AJJacobs_2007P'
p3772
sS'alexa_meade'
p3773
S'AlexaMeade_2013G'
p3774
sS'rainer_strack_the_surprising_workforce_crisis_of_2030_and_how_to_start_solving_it_now'
p3775
S'RainerStrack_2014S'
p3776
sS'ole_scheeren_why_great_architecture_should_tell_a_story'
p3777
S'OleScheeren_2015G'
p3778
sS'sebastian_seung'
p3779
S'SebastianSeung_2010G'
p3780
sS'nirmalya_kumar_india_s_invisible_entrepreneurs'
p3781
S'NirmalyaKumar_2012X'
p3782
sS'patricia_medici_the_coolest_animal_you_know_nothing_about_and_how_we_can_save_it'
p3783
S'PatriciaMedici_2015F'
p3784
sS'adam_ostrow_after_your_final_status_update'
p3785
S'AdamOstrow_2011G'
p3786
sS'virginia_postrel_on_glamour'
p3787
S'VirginiaPostrel_2004'
p3788
sS'nalini_nadkani_on_conserving_the_canopy'
p3789
S'NaliniNadkarni_2009'
p3790
sS'alex_kipman_the_dawn_of_the_age_of_holograms'
p3791
S'AlexKipman_2016'
p3792
sS'steven_levitt_on_child_carseats'
p3793
S'StevenLevitt_2005G'
p3794
sS'raymond_wang_how_germs_travel_on_planes_and_how_we_can_stop_them'
p3795
S'RaymondWang_2015Y'
p3796
sS'alessandra_orofino_it_s_our_city_let_s_fix_it'
p3797
S'AlessandraOrofino_2014G'
p3798
sS'marcel_dicke_why_not_eat_insects'
p3799
S'MarcelDicke_2010G'
p3800
sS'taylor_wilson_my_radical_plan_for_small_nuclear_fission_reactors'
p3801
S'TaylorWilson_2013'
p3802
sS'dr_seyi_oyesola_tours_a_hospital_in_nigeria'
p3803
S'SeyiOyesola_2007G'
p3804
sS'hilary_cottam_social_services_are_broken_how_we_can_fix_them'
p3805
S'HilaryCottam_2015G'
p3806
sS'keith_bellows_on_the_camel_s_hump'
p3807
S'KeithBellows_2002'
p3808
sS'patricia_ryan_ideas_in_all_languages_not_just_english'
p3809
S'PatriciaRyan_2010X'
p3810
sS'louise_fresco_on_feeding_the_whole_world'
p3811
S'LouiseFresco_2009'
p3812
sS'dave_isay_everyone_around_you_has_a_story_the_world_needs_to_hear'
p3813
S'DaveIsay_2015'
p3814
sS'angela_patton_a_father_daughter_dance_in_prison'
p3815
S'AngelaPatton_2012X'
p3816
sS'nicholas_negroponte_a_30_year_history_of_the_future'
p3817
S'NicholasNegroponte_2014'
p3818
sS'carl_safina_what_are_animals_thinking_and_feeling'
p3819
S'CarlSafina_2015Z'
p3820
sS'wes_moore_how_to_talk_to_veterans_about_the_war'
p3821
S'WesMoore_2014S'
p3822
sS'beau_lotto_amy_o_toole_science_is_for_everyone_kids_included'
p3823
S'BeauLotto_2012G'
p3824
sS'david_blaine_how_i_held_my_breath_for_17_min'
p3825
S'DavidBlaine_2009P'
p3826
sS'wade_davis_on_the_worldwide_web_of_belief_and_ritual'
p3827
S'WadeDavis_2008'
p3828
sS'ariel_garten_know_thyself_with_a_brain_scanner'
p3829
S'ArielGarten_2011X'
p3830
sS'terry_moore_how_to_tie_your_shoes'
p3831
S'TerryMoore_2005'
p3832
sS'rosie_king_how_autism_freed_me_to_be_myself'
p3833
S'RosieKing_2014P'
p3834
sS'sonaar_luthra_meet_the_water_canary'
p3835
S'SonaarLuthra_2011G'
p3836
sS'sarah_bergbreiter_why_i_make_robots_the_size_of_a_grain_of_rice'
p3837
S'SarahBergbreiter_2014Y'
p3838
sS'bill_t_jones_the_dancer_the_singer_the_cellist_and_a_moment_of_creative_magic'
p3839
S'BillTJones_2015'
p3840
sS'richard_weller_could_the_sun_be_good_for_your_heart'
p3841
S'RichardWeller_2012X'
p3842
sS'craig_venter_is_on_the_verge_of_creating_synthetic_life'
p3843
S'CraigVenter_2008'
p3844
sS'sam_harris_science_can_show_what_s_right'
p3845
S'SamHarris_2010'
p3846
sS'jay_walker_s_library_of_human_imagination'
p3847
S'JayWalker_2008'
p3848
sS'ed_ulbrich_shows_how_benjamin_button_got_his_face'
p3849
S'EdUlbrich_2009'
p3850
sS'niels_diffrient_rethinks_the_way_we_sit_at_work'
p3851
S'NielsDiffrient_2002'
p3852
sS'shyam_sankar_the_rise_of_human_computer_cooperation'
p3853
S'ShyamSankar_2012G'
p3854
sS'susan_etlinger_what_do_we_do_with_all_this_big_data'
p3855
S'SusanEtlinger_2014S'
p3856
sS'kirk_citron_and_now_the_real_news'
p3857
S'KirkCitron_2010'
p3858
sS'kenichi_ebina_s_magic_moves'
p3859
S'KenichiEbina_2007'
p3860
sS'elizabeth_nyamayaro_an_invitation_to_men_who_want_a_better_world_for_women'
p3861
S'ElizabethNyamayaro_2015W'
p3862
sS'liza_donnelly_drawing_upon_humor_for_change'
p3863
S'LizaDonnelly_2010W'
p3864
sS'olafur_eliasson_playing_with_space_and_light'
p3865
S'OlafurEliasson_2009'
p3866
sS'shawn_achor_the_happy_secret_to_better_work'
p3867
S'ShawnAchor_2011X'
p3868
sS'david_epstein_are_athletes_really_getting_faster_better_stronger'
p3869
S'DavidEpstein_2014'
p3870
sS'jackie_savitz_save_the_oceans_feed_the_world'
p3871
S'JackieSavitz_2013X'
p3872
sS'steven_pinker_and_rebecca_newberger_goldstein_the_long_reach_of_reason'
p3873
S'StevenPinker_2012'
p3874
sS'paul_rothemund_casts_a_spell_with_dna'
p3875
S'PaulRothemund_2007'
p3876
sS'mathieu_lehanneur_demos_science_inspired_design'
p3877
S'MathieuLehanneur_2009G'
p3878
sS'joseph_pine_on_what_consumers_want'
p3879
S'JosephPine_2004'
p3880
sS'chris_kluwe_how_augmented_reality_will_change_sports_and_build_empathy'
p3881
S'ChrisKluwe_2014'
p3882
sS'adam_davidson_what_we_learned_from_teetering_on_the_fiscal_cliff'
p3883
S'AdamDavidson_2012S'
p3884
sS'matthieu_ricard_how_to_let_altruism_be_your_guide'
p3885
S'MatthieuRicard_2014G'
p3886
sS'chelsea_shields_how_i_m_working_for_change_inside_my_church'
p3887
S'ChelseaShields_2015F'
p3888
sS'david_kelley_how_to_build_your_creative_confidence'
p3889
S'DavidKelley_2012'
p3890
sS'e_o_wilson_advice_to_young_scientists'
p3891
S'EOWilson_2012P'
p3892
sS'io_tillett_wright_fifty_shades_of_gay'
p3893
S'iOTillettWright_2012X'
p3894
sS'rachel_sussman_the_world_s_oldest_living_things'
p3895
S'RachelSussman_2010G'
p3896
sS'roselinde_torres_what_it_takes_to_be_a_great_leader'
p3897
S'RoselindeTorres_2013S'
p3898
sS'daphne_bavelier_your_brain_on_video_games'
p3899
S'DaphneBavelier_2012X'
p3900
sS'dorothy_roberts_the_problem_with_race_based_medicine'
p3901
S'DorothyRoberts_2015P'
p3902
sS'bill_gates_unplugged'
p3903
S'BillGates_2009'
p3904
sS'jamil_abu_wardeh_bringing_comedy_to_the_axis_of_evil'
p3905
S'JamilAbuWardeh_2010G'
p3906
sS'sandra_aamodt_why_dieting_doesn_t_usually_work'
p3907
S'SandraAamodt_2013G'
p3908
sS'harish_manwani_profit_s_not_always_the_point'
p3909
S'HarishManwani_2013S'
p3910
sS'alex_steffen'
p3911
S'AlexSteffen_2011G'
p3912
sS'anastasia_taylor_lind_fighters_and_mourners_of_the_ukrainian_revolution'
p3913
S'AnastasiaTaylorLind_2014U'
p3914
sS'naif_al_mutawa_superheroes_inspired_by_islam'
p3915
S'NaifAlMutawa_2010G'
p3916
sS'young_ha_kim_be_an_artist_right_now'
p3917
S'YounghaKim_2010X'
p3918
sS'michelle_obama'
p3919
S'MichelleObama_2009P'
p3920
sS'joi_ito_want_to_innovate_become_a_now_ist'
p3921
S'JoiIto_2014'
p3922
sS'yves_behar_s_supercharged_motorcycle_design'
p3923
S'YvesBehar_2009'
p3924
sS'mina_bissell_experiments_that_point_to_a_new_understanding_of_cancer'
p3925
S'MinaBissell_2012G'
p3926
sS'jane_goodall_on_what_separates_us_from_the_apes'
p3927
S'JaneGoodall_2002'
p3928
sS'moshe_safdie_how_to_reinvent_the_apartment_building'
p3929
S'MosheSafdie_2014U'
p3930
sS'jessica_ladd_the_reporting_system_that_sexual_assault_survivors_want'
p3931
S'JessicaLadd_2016F'
p3932
sS'marla_spivak_why_bees_are_disappearing'
p3933
S'MarlaSpivak_2013G'
p3934
sS'marisa_fick_jordan_shares_the_wonder_of_zulu_wire_art'
p3935
S'MarisaFickJordan_2007G'
p3936
sS'david_puttnam_what_happens_when_the_media_s_priority_is_profit'
p3937
S'DavidPuttnam_2013X'
p3938
sS'oliver_sacks_what_hallucination_reveals_about_our_minds'
p3939
S'OliverSacks_2009'
p3940
sS'sean_gourley_on_the_mathematics_of_war'
p3941
S'SeanGourley_2009U'
p3942
sS'michael_specter_the_danger_of_science_denial'
p3943
S'MichaelSpecter_2010'
p3944
sS'dawn_landes_a_song_for_my_hero_the_woman_who_rowed_into_a_hurricane'
p3945
S'DawnLandes_2015'
p3946
sS'mariana_mazzucato_government_investor_risk_taker_innovator'
p3947
S'MarianaMazzucato_2013G'
p3948
sS'patience_mthunzi_could_we_cure_hiv_with_lasers'
p3949
S'PatienceMthunzi_2015U'
p3950
sS'toby_shapshak_you_don_t_need_an_app_for_that'
p3951
S'TobyShapshak_2013G'
p3952
sS'ngozi_okonjo_iweala_on_doing_business_in_africa'
p3953
S'NgoziOkonjoIweala_2007'
p3954
sS'rose_george_let_s_talk_crap_seriously'
p3955
S'RoseGeorge_2013'
p3956
sS'joe_madiath_better_toilets_better_life'
p3957
S'JoeMadiath_2014G'
p3958
sS'patrick_chappatte_the_power_of_cartoons'
p3959
S'PatrickChappatte_2010G'
p3960
sS'robert_gordon_the_death_of_innovation_the_end_of_growth'
p3961
S'RobertGordon_2013'
p3962
sS'christopher_m00t_poole_the_case_for_anonymity_online'
p3963
S'ChristopherPoole_2010'
p3964
sS'heather_brooke_my_battle_to_expose_government_corruption'
p3965
S'HeatherBrooke_2012G'
p3966
sS'temple_grandin_the_world_needs_all_kinds_of_minds'
p3967
S'TempleGrandin_2010'
p3968
sS'sakena_yacoobi_how_i_stopped_the_taliban_from_shutting_down_my_school'
p3969
S'SakenaYacoobi_2015W'
p3970
sS'jennifer_granholm_a_clean_energy_proposal_race_to_the_top'
p3971
S'JenniferGranholm_2013'
p3972
sS'jeff_skoll_makes_movies_that_make_change'
p3973
S'JeffreySkoll_2007'
p3974
sS'howard_rheingold_on_collaboration'
p3975
S'HowardRheingold_2005'
p3976
sS'chris_bangle_says_great_cars_are_art'
p3977
S'ChrisBangle_2002'
p3978
sS'chris_bliss_comedy_is_translation'
p3979
S'ChrisBliss_2011X'
p3980
sS'pankaj_ghemawat_actually_the_world_isn_t_flat'
p3981
S'PankajGhemawat_2012G'
p3982
sS'philippe_petit_the_journey_across_the_high_wire'
p3983
S'PhilippePetit_2012'
p3984
sS'lee_smolin_on_science_and_democracy'
p3985
S'LeeSmolin_2003'
p3986
sS'david_griffin_on_how_photography_connects'
p3987
S'DavidGriffin_2008'
p3988
sS'nandan_nilekani_s_ideas_for_india_s_future'
p3989
S'NandanNilekani_2009'
p3990
sS'john_hodgman_s_brief_digression'
p3991
S'JohnHodgman_2008'
p3992
sS'juliana_machado_ferreira'
p3993
S'JulianaMachadoFerreira_2010U'
p3994
sS'jake_wood_a_new_mission_for_veterans_disaster_relief'
p3995
S'JakeWood_2011X'
p3996
sS'zeresenay_alemseged_looks_for_humanity_s_roots'
p3997
S'ZeresenayAlemseged_2007G'
p3998
sS'simon_berrow_how_do_you_save_a_shark_you_know_nothing_about'
p3999
S'SimonBerrow_2010X'
p4000
sS'dan_ariely_asks_are_we_in_control_of_our_own_decisions'
p4001
S'DanAriely_2008P'
p4002
sS'tony_robbins_asks_why_we_do_what_we_do'
p4003
S'TonyRobbins_2006'
p4004
sS'kartick_satyanarayan_how_we_rescued_the_dancing_bears'
p4005
S'KartickSatyanarayan_2009I'
p4006
sS'martin_pistorius_how_my_mind_came_back_to_life_and_no_one_knew'
p4007
S'MartinPistorius_2015X'
p4008
sS'newton_aduaka_tells_the_story_of_ezra'
p4009
S'NewtonAduaka_2007G'
p4010
sS'bahia_shehab_a_thousand_times_no'
p4011
S'BahiaShehab_2012G'
p4012
sS'raffaello_d_andrea_the_astounding_athletic_power_of_quadcopters'
p4013
S'RaffaelloDAndrea_2013G'
p4014
sS'iqbal_quadir_says_mobiles_fight_poverty'
p4015
S'IqbalQuadir_2005G'
p4016
sS'stephen_burt_why_people_need_poetry'
p4017
S'StephenBurt_2013G'
p4018
sS'anil_gupta_india_s_hidden_hotbeds_of_invention'
p4019
S'AnilGupta_2009I'
p4020
sS'quyen_nguyen_color_coded_surgery'
p4021
S'QuyenNguyen_2011P'
p4022
sS'william_li'
p4023
S'WilliamLi_2010'
p4024
sS'murray_gell_mann_on_beauty_and_truth_in_physics'
p4025
S'MurrayGellMann_2007'
p4026
sS'carolyn_porco_flies_us_to_saturn'
p4027
S'CarolynPorco_2007'
p4028
sS'krista_tippett_reconnecting_with_compassion'
p4029
S'KristaTippett_2010Z'
p4030
sS'ramanan_laxminarayan_the_coming_crisis_in_antibiotics'
p4031
S'RamananLaxminarayan_2014P'
p4032
sS'paul_greenberg_the_four_fish_we_re_overeating_and_what_to_eat_instead'
p4033
S'PaulGreenberg_2015Z'
p4034
sS'sunitha_krishnan_tedindia'
p4035
S'SunithaKrishnan_2009I'
p4036
sS'ann_morgan_my_year_reading_a_book_from_every_country_in_the_world'
p4037
S'AnnMorgan_2015G'
p4038
sS'bruce_bueno_de_mesquita_predicts_iran_s_future'
p4039
S'BruceBuenodeMesquita_2009'
p4040
sS'teitur_home_is_a_song_i_ve_always_remembered'
p4041
S'Teitur_2015'
p4042
sS'tali_sharot_the_optimism_bias'
p4043
S'TaliSharot_2012'
p4044
sS'david_hanson_robots_that_relate_to_you'
p4045
S'DavidHanson_2009'
p4046
sS'loretta_napoleoni_the_intricate_economics_of_terrorism'
p4047
S'LorettaNapoleoni_2009G'
p4048
sS'jose_miguel_sokoloff_how_christmas_lights_helped_guerrillas_put_down_their_guns'
p4049
S'JoseMiguelSokoloff_2014G'
p4050
sS'bill_gates_the_next_disaster_we_re_not_ready'
p4051
S'BillGates_2015'
p4052
sS'barat_ali_batoor_my_desperate_journey_with_a_human_smuggler'
p4053
S'BaratAliBatoor_2014X'
p4054
sS'alexis_ohanian_how_to_make_a_splash_in_social_media'
p4055
S'AlexisOhanian_2009I'
p4056
sS'conrad_wolfram_teaching_kids_real_math_with_computers'
p4057
S'ConradWolfram_2010G'
p4058
sS'freeman_dyson_says_let_s_look_for_life_in_the_outer_solar_system'
p4059
S'FreemanDyson_2003'
p4060
sS'jacqueline_novogratz_inspiring_a_life_of_immersion'
p4061
S'JacquelineNovogratz_2010W'
p4062
sS'arthur_potts_dawson_a_vision_for_sustainable_restaurants'
p4063
S'ArthurPottsDawson_2010G'
p4064
sS'shereen_el_feki_how_to_fight_an_epidemic_of_bad_laws'
p4065
S'ShereenElFeki_2012S'
p4066
sS'lee_cronin_making_matter_come_alive'
p4067
S'LeeCronin_2011G'
p4068
sS'andras_forgacs_leather_and_meat_without_killing_animals'
p4069
S'AndrasForgacs_2013G'
p4070
sS'laura_trice_suggests_we_all_say_thank_you'
p4071
S'LauraTrice_2008'
p4072
sS'daniel_tammet_different_ways_of_knowing'
p4073
S'DanielTammet_2011'
p4074
sS'wendy_chung_autism_what_we_know_and_what_we_don_t_know_yet'
p4075
S'WendyChung_2014'
p4076
sS'rob_harmon_how_the_market_can_keep_streams_flowing'
p4077
S'RobHarmon_2010X'
p4078
sS'britta_riley_a_garden_in_my_apartment'
p4079
S'BrittaRiley_2011X'
p4080
sS'rodney_brooks_why_we_will_rely_on_robots'
p4081
S'RodneyBrooks_2013'
p4082
sS'brian_skerry_reveals_ocean_s_glory_and_horror'
p4083
S'BrianSkerry_2010Z'
p4084
sS'matthew_o_reilly_am_i_dying_the_honest_answer'
p4085
S'MatthewOReilly_2014S'
p4086
sS'ron_gutman_the_hidden_power_of_smiling'
p4087
S'RonGutman_2011U'
p4088
sS'dean_ornish_on_healing'
p4089
S'DeanOrnish_2004'
p4090
sS'joe_kowan_how_i_beat_stage_fright'
p4091
S'JoeKowan_2013S'
p4092
sS'bassam_tariq_the_beauty_and_diversity_of_muslim_life'
p4093
S'BassamTariq_2014U'
p4094
sS'anna_mracek_dietrich_a_plane_you_can_drive'
p4095
S'AnnaMracekDietrich_2011G'
p4096
sS'freeman_hrabowski_4_pillars_of_college_success_in_science'
p4097
S'FreemanHrabowski_2013'
p4098
sS'chris_abani_on_the_stories_of_africa'
p4099
S'ChrisAbani_2007G'
p4100
sS'william_mcdonough_on_cradle_to_cradle_design'
p4101
S'WilliamMcDonough_2005'
p4102
sS'euvin_naidoo_on_investing_in_africa'
p4103
S'EuvinNaidoo_2007G'
p4104
sS'robin_ince_science_versus_wonder'
p4105
S'RobinInce_2011G'
p4106
sS'kent_larson_brilliant_designs_to_fit_more_people_in_every_city'
p4107
S'KentLarson_2012X'
p4108
sS'abha_dawesar_life_in_the_digital_now'
p4109
S'AbhaDawesar_2013G'
p4110
sS'geena_rocero_why_i_must_come_out'
p4111
S'GeenaRocero_2014'
p4112
sS'yves_morieux_as_work_gets_more_complex_6_rules_to_simplify'
p4113
S'YvesMorieux_2013S'
p4114
sS'yann_dall_aglio_love_you_re_doing_it_wrong'
p4115
S'YannDallAglio_2012X'
p4116
sS'stefon_harris_there_are_no_mistakes_on_the_bandstand'
p4117
S'StefonHarris_2011S'
p4118
sS'hans_rosling_on_global_population_growth'
p4119
S'HansRosling_2010S'
p4120
sS'srdja_popovic_how_to_topple_a_dictator'
p4121
S'SrdjaPopovic_2011X'
p4122
sS'nora_york_sings_what_i_want'
p4123
S'NoraYork_WhatIWant_2006S'
p4124
sS'david_rothkopf_how_fear_drives_american_politics'
p4125
S'DavidRothkopf_2015'
p4126
sS'james_lyne_everyday_cybercrime_and_what_you_can_do_about_it'
p4127
S'JamesLyne_2013'
p4128
sS'alec_soth_stacey_baker_this_is_what_enduring_love_looks_like'
p4129
S'AlecSoth_2015'
p4130
sS'miguel_nicolelis_brain_to_brain_communication_has_arrived_how_we_did_it'
p4131
S'MiguelNicolelis_2014G'
p4132
sS'dilip_ratha_the_hidden_force_in_global_economics_sending_money_home'
p4133
S'DilipRatha_2014G'
p4134
sS'andrew_bastawrous_get_your_next_eye_exam_on_a_smartphone'
p4135
S'AndrewBastawrous_2014U'
p4136
sS'james_nachtwey_s_searing_pictures_of_war'
p4137
S'JamesNachtwey_2007'
p4138
sS'nina_tandon_caring_for_cells'
p4139
S'NinaTandon_2011U'
p4140
sS'jacek_utko_asks_can_design_save_the_newspaper'
p4141
S'JacekUtko_2009'
p4142
sS'david_mackay_a_reality_check_on_renewables'
p4143
S'DavidMackay_2012X'
p4144
sS'tavi_gevinson_a_teen_just_trying_to_figure_it_out'
p4145
S'TaviGevinson_2012X'
p4146
sS'rob_legato_the_art_of_creating_awe'
p4147
S'RobLegato_2012G'
p4148
sS'rebecca_onie_what_if_our_healthcare_system_kept_us_healthy'
p4149
S'RebeccaOnie_2012P'
p4150
sS'ex_moonie_diane_benscoter_how_cults_think'
p4151
S'DianeBenscoter_2009U'
p4152
sS'gever_tulley_on_5_dangerous_things_for_kids'
p4153
S'GeverTulley_2007U'
p4154
sS'apollo_robbins_the_art_of_misdirection'
p4155
S'ApolloRobbins_2013G'
p4156
sS'nathalie_miebach'
p4157
S'NathalieMiebach_2011G'
p4158
sS'amanda_burden_how_public_spaces_make_cities_work'
p4159
S'AmandaBurden_2014'
p4160
sS'saul_griffith_on_kites_as_the_future_of_renewable_energy'
p4161
S'SaulGriffith_2009'
p4162
sS'barbara_block_tagging_tuna_in_the_deep_ocean'
p4163
S'BarbaraBlock_2010Z'
p4164
sS'paul_debevec_animates_a_photo_real_digital_face'
p4165
S'PaulDebevec_2009X'
p4166
sS'jared_ficklin_new_ways_to_see_music_with_color_and_fire'
p4167
S'JaredFicklin_2012'
p4168
sS'johnny_lee_demos_wii_remote_hacks'
p4169
S'JohnnyLee_2008'
p4170
s.